ccopy_reg
_reconstructor
p0
(ctreelib.tree
Tree
p1
c__builtin__
object
p2
Ntp3
Rp4
(dp5
S'_nodes'
p6
(dp7
I0
g0
(ctreelib.node
Node
p8
g2
Ntp9
Rp10
(dp11
S'_fpointer'
p12
(lp13
I1
aI88
asS'expanded'
p14
I01
sS'_tag'
p15
S'Evaluation[N][S]'
p16
sS'_identifier'
p17
I0
sS'data'
p18
NsS'_bpointer'
p19
NsbsI1
g0
(g8
g2
Ntp20
Rp21
(dp22
g12
(lp23
I2
aI31
asg14
I01
sg15
S'Elaboration[N][S]'
p24
sg17
I1
sg18
Nsg19
I0
sbsI2
g0
(g8
g2
Ntp25
Rp26
(dp27
g12
(lp28
I3
aI4
asg14
I01
sg15
S'Explanation[N][S]'
p29
sg17
I2
sg18
Nsg19
I1
sbsI3
g0
(g8
g2
Ntp30
Rp31
(dp32
g12
(lp33
sg14
I01
sg15
S'_!<edu> Energetic and concrete action has been taken in Colombia during the past 60 days against the mafiosi of the drug trade , <s>!_'
p34
sg17
I3
sg18
Nsg19
I2
sbsI4
g0
(g8
g2
Ntp35
Rp36
(dp37
g12
(lp38
I5
aI22
asg14
I01
sg15
S'Elaboration[N][S]'
p39
sg17
I4
sg18
Nsg19
I2
sbsI5
g0
(g8
g2
Ntp40
Rp41
(dp42
g12
(lp43
I6
aI21
asg14
I01
sg15
S'Elaboration[N][S]'
p44
sg17
I5
sg18
Nsg19
I4
sbsI6
g0
(g8
g2
Ntp45
Rp46
(dp47
g12
(lp48
I7
aI16
asg14
I01
sg15
S'Elaboration[N][S]'
p49
sg17
I6
sg18
Nsg19
I5
sbsI7
g0
(g8
g2
Ntp50
Rp51
(dp52
g12
(lp53
I8
aI13
asg14
I01
sg15
S'Elaboration[N][S]'
p54
sg17
I7
sg18
Nsg19
I6
sbsI8
g0
(g8
g2
Ntp55
Rp56
(dp57
g12
(lp58
I9
aI10
asg14
I01
sg15
S'Elaboration[N][S]'
p59
sg17
I8
sg18
Nsg19
I7
sbsI9
g0
(g8
g2
Ntp60
Rp61
(dp62
g12
(lp63
sg14
I01
sg15
S'_!</edu> <edu> but it has not been sufficiently effective , <s>!_'
p64
sg17
I9
sg18
Nsg19
I8
sbsI10
g0
(g8
g2
Ntp65
Rp66
(dp67
g12
(lp68
I11
aI12
asg14
I01
sg15
S'Attribution[S][N]'
p69
sg17
I10
sg18
Nsg19
I8
sbsI11
g0
(g8
g2
Ntp70
Rp71
(dp72
g12
(lp73
sg14
I01
sg15
S'_!</edu> <edu>!_'
p74
sg17
I11
sg18
Nsg19
I10
sbsI12
g0
(g8
g2
Ntp75
Rp76
(dp77
g12
(lp78
sg14
I01
sg15
S'_!because , unfortunately , it came too late . <s>!_'
p79
sg17
I12
sg18
Nsg19
I10
sbsI13
g0
(g8
g2
Ntp80
Rp81
(dp82
g12
(lp83
I14
aI15
asg14
I01
sg15
S'Elaboration[N][S]'
p84
sg17
I13
sg18
Nsg19
I7
sbsI14
g0
(g8
g2
Ntp85
Rp86
(dp87
g12
(lp88
sg14
I01
sg15
S'_!</edu> <edu> Ten years ago , the newspaper El Espectador , <s>!_'
p89
sg17
I14
sg18
Nsg19
I13
sbsI15
g0
(g8
g2
Ntp90
Rp91
(dp92
g12
(lp93
sg14
I01
sg15
S'_!</edu> <edu> of which my brother Guillermo was editor , <s>!_'
p94
sg17
I15
sg18
Nsg19
I13
sbsI16
g0
(g8
g2
Ntp95
Rp96
(dp97
g12
(lp98
I17
aI20
asg14
I01
sg15
S'Elaboration[N][S]'
p99
sg17
I16
sg18
Nsg19
I6
sbsI17
g0
(g8
g2
Ntp100
Rp101
(dp102
g12
(lp103
I18
aI19
asg14
I01
sg15
S'Attribution[S][N]'
p104
sg17
I17
sg18
Nsg19
I16
sbsI18
g0
(g8
g2
Ntp105
Rp106
(dp107
g12
(lp108
sg14
I01
sg15
S'_!</edu> <edu> began!_'
p109
sg17
I18
sg18
Nsg19
I17
sbsI19
g0
(g8
g2
Ntp110
Rp111
(dp112
g12
(lp113
sg14
I01
sg15
S"_!warning of the rise of the drug mafias and of their leaders ' aspirations <s>!_"
p114
sg17
I19
sg18
Nsg19
I17
sbsI20
g0
(g8
g2
Ntp115
Rp116
(dp117
g12
(lp118
sg14
I01
sg15
S'_!</edu> <edu> to control Colombian politics , especially the Congress . <s>!_'
p119
sg17
I20
sg18
Nsg19
I16
sbsI21
g0
(g8
g2
Ntp120
Rp121
(dp122
g12
(lp123
sg14
I01
sg15
S'_!</edu> <edu> Then , <s>!_'
p124
sg17
I21
sg18
Nsg19
I5
sbsI22
g0
(g8
g2
Ntp125
Rp126
(dp127
g12
(lp128
I23
aI30
asg14
I01
sg15
S'Background[S][N]'
p129
sg17
I22
sg18
Nsg19
I4
sbsI23
g0
(g8
g2
Ntp130
Rp131
(dp132
g12
(lp133
I24
aI29
asg14
I01
sg15
S'textual-organization[N][N]'
p134
sg17
I23
sg18
Nsg19
I22
sbsI24
g0
(g8
g2
Ntp135
Rp136
(dp137
g12
(lp138
I25
aI28
asg14
I01
sg15
S'Summary[N][S]'
p139
sg17
I24
sg18
Nsg19
I23
sbsI25
g0
(g8
g2
Ntp140
Rp141
(dp142
g12
(lp143
I26
aI27
asg14
I01
sg15
S'Background[N][S]'
p144
sg17
I25
sg18
Nsg19
I24
sbsI26
g0
(g8
g2
Ntp145
Rp146
(dp147
g12
(lp148
sg14
I01
sg15
S'_!</edu> <edu>!_'
p149
sg17
I26
sg18
Nsg19
I25
sbsI27
g0
(g8
g2
Ntp150
Rp151
(dp152
g12
(lp153
sg14
I01
sg15
S'_!when it would have been easier </edu> <edu> to resist them , <s>!_'
p154
sg17
I27
sg18
Nsg19
I25
sbsI28
g0
(g8
g2
Ntp155
Rp156
(dp157
g12
(lp158
sg14
I01
sg15
S'_!</edu> <edu> nothing was done <s>!_'
p159
sg17
I28
sg18
Nsg19
I24
sbsI29
g0
(g8
g2
Ntp160
Rp161
(dp162
g12
(lp163
sg14
I01
sg15
S'_!</edu> <edu> and my brother </edu> <edu> was murdered by the drug mafias three years ago . <s>!_'
p164
sg17
I29
sg18
Nsg19
I23
sbsI30
g0
(g8
g2
Ntp165
Rp166
(dp167
g12
(lp168
sg14
I01
sg15
S"_!</edu> <edu> The most ruthless dictatorships have not censored their press more brutally than the drug mafias censor Colombia 's . <s>!_"
p169
sg17
I30
sg18
Nsg19
I22
sbsI31
g0
(g8
g2
Ntp170
Rp171
(dp172
g12
(lp173
I32
aI83
asg14
I01
sg15
S'Elaboration[N][S]'
p174
sg17
I31
sg18
Nsg19
I1
sbsI32
g0
(g8
g2
Ntp175
Rp176
(dp177
g12
(lp178
I33
aI64
asg14
I01
sg15
S'Elaboration[N][S]'
p179
sg17
I32
sg18
Nsg19
I31
sbsI33
g0
(g8
g2
Ntp180
Rp181
(dp182
g12
(lp183
I34
aI51
asg14
I01
sg15
S'Elaboration[N][S]'
p184
sg17
I33
sg18
Nsg19
I32
sbsI34
g0
(g8
g2
Ntp185
Rp186
(dp187
g12
(lp188
I35
aI38
asg14
I01
sg15
S'Elaboration[N][S]'
p189
sg17
I34
sg18
Nsg19
I33
sbsI35
g0
(g8
g2
Ntp190
Rp191
(dp192
g12
(lp193
I36
aI37
asg14
I01
sg15
S'Elaboration[N][S]'
p194
sg17
I35
sg18
Nsg19
I34
sbsI36
g0
(g8
g2
Ntp195
Rp196
(dp197
g12
(lp198
sg14
I01
sg15
S'_!</edu> <edu> The censorship is enforced through terrorism and assassination . <s>!_'
p199
sg17
I36
sg18
Nsg19
I35
sbsI37
g0
(g8
g2
Ntp200
Rp201
(dp202
g12
(lp203
sg14
I01
sg15
S'_!</edu> <edu> In the past 10 years about 50 journalists have been silenced forever , </edu> <edu> murdered . <s>!_'
p204
sg17
I37
sg18
Nsg19
I35
sbsI38
g0
(g8
g2
Ntp205
Rp206
(dp207
g12
(lp208
I39
aI40
asg14
I01
sg15
S'Elaboration[N][S]'
p209
sg17
I38
sg18
Nsg19
I34
sbsI39
g0
(g8
g2
Ntp210
Rp211
(dp212
g12
(lp213
sg14
I01
sg15
S'_!</edu> <edu> Within the past two months a bomb exploded in the offices of the El Espectador in Bogota , <s>!_'
p214
sg17
I39
sg18
Nsg19
I38
sbsI40
g0
(g8
g2
Ntp215
Rp216
(dp217
g12
(lp218
I41
aI50
asg14
I01
sg15
S'Background[S][N]'
p219
sg17
I40
sg18
Nsg19
I38
sbsI41
g0
(g8
g2
Ntp220
Rp221
(dp222
g12
(lp223
I42
aI49
asg14
I01
sg15
S'Elaboration[N][S]'
p224
sg17
I41
sg18
Nsg19
I40
sbsI42
g0
(g8
g2
Ntp225
Rp226
(dp227
g12
(lp228
I43
aI48
asg14
I01
sg15
S'Elaboration[N][S]'
p229
sg17
I42
sg18
Nsg19
I41
sbsI43
g0
(g8
g2
Ntp230
Rp231
(dp232
g12
(lp233
I44
aI47
asg14
I01
sg15
S'Elaboration[N][S]'
p234
sg17
I43
sg18
Nsg19
I42
sbsI44
g0
(g8
g2
Ntp235
Rp236
(dp237
g12
(lp238
I45
aI46
asg14
I01
sg15
S'Attribution[S][N]'
p239
sg17
I44
sg18
Nsg19
I43
sbsI45
g0
(g8
g2
Ntp240
Rp241
(dp242
g12
(lp243
sg14
I01
sg15
S'_!</edu> <edu>!_'
p244
sg17
I45
sg18
Nsg19
I44
sbsI46
g0
(g8
g2
Ntp245
Rp246
(dp247
g12
(lp248
sg14
I01
sg15
S'_!destroying a major part of its installations and equipment . <s>!_'
p249
sg17
I46
sg18
Nsg19
I44
sbsI47
g0
(g8
g2
Ntp250
Rp251
(dp252
g12
(lp253
sg14
I01
sg15
S'_!</edu> <edu> And only last week the newspaper Vanguardia Liberal in the city of Bucaramanga was bombed , <s>!_'
p254
sg17
I47
sg18
Nsg19
I43
sbsI48
g0
(g8
g2
Ntp255
Rp256
(dp257
g12
(lp258
sg14
I01
sg15
S'_!</edu> <edu> and its installations </edu> <edu> destroyed . <s>!_'
p259
sg17
I48
sg18
Nsg19
I42
sbsI49
g0
(g8
g2
Ntp260
Rp261
(dp262
g12
(lp263
sg14
I01
sg15
S'_!</edu> <edu> Journalists and their families are constantly threatened <s>!_'
p264
sg17
I49
sg18
Nsg19
I41
sbsI50
g0
(g8
g2
Ntp265
Rp266
(dp267
g12
(lp268
sg14
I01
sg15
S'_!</edu> <edu> as are the newspaper distribution outlets . <s>!_'
p269
sg17
I50
sg18
Nsg19
I40
sbsI51
g0
(g8
g2
Ntp270
Rp271
(dp272
g12
(lp273
I52
aI57
asg14
I01
sg15
S'Elaboration[N][S]'
p274
sg17
I51
sg18
Nsg19
I33
sbsI52
g0
(g8
g2
Ntp275
Rp276
(dp277
g12
(lp278
I53
aI56
asg14
I01
sg15
S'Elaboration[N][S]'
p279
sg17
I52
sg18
Nsg19
I51
sbsI53
g0
(g8
g2
Ntp280
Rp281
(dp282
g12
(lp283
I54
aI55
asg14
I01
sg15
S'Elaboration[N][S]'
p284
sg17
I53
sg18
Nsg19
I52
sbsI54
g0
(g8
g2
Ntp285
Rp286
(dp287
g12
(lp288
sg14
I01
sg15
S'_!</edu> <edu> Distribution centers are bombed , <s>!_'
p289
sg17
I54
sg18
Nsg19
I53
sbsI55
g0
(g8
g2
Ntp290
Rp291
(dp292
g12
(lp293
sg14
I01
sg15
S'_!</edu> <edu> and advertisers are intimidated . <s>!_'
p294
sg17
I55
sg18
Nsg19
I53
sbsI56
g0
(g8
g2
Ntp295
Rp296
(dp297
g12
(lp298
sg14
I01
sg15
S'_!</edu> <edu> Censorship is imposed by terrorism . <s>!_'
p299
sg17
I56
sg18
Nsg19
I52
sbsI57
g0
(g8
g2
Ntp300
Rp301
(dp302
g12
(lp303
I58
aI63
asg14
I01
sg15
S'Elaboration[N][S]'
p304
sg17
I57
sg18
Nsg19
I51
sbsI58
g0
(g8
g2
Ntp305
Rp306
(dp307
g12
(lp308
I59
aI62
asg14
I01
sg15
S'Elaboration[N][S]'
p309
sg17
I58
sg18
Nsg19
I57
sbsI59
g0
(g8
g2
Ntp310
Rp311
(dp312
g12
(lp313
I60
aI61
asg14
I01
sg15
S'Elaboration[N][S]'
p314
sg17
I59
sg18
Nsg19
I58
sbsI60
g0
(g8
g2
Ntp315
Rp316
(dp317
g12
(lp318
sg14
I01
sg15
S'_!</edu> <edu> If the Colombian media accept this new and hideous censorship <s>!_'
p319
sg17
I60
sg18
Nsg19
I59
sbsI61
g0
(g8
g2
Ntp320
Rp321
(dp322
g12
(lp323
sg14
I01
sg15
S'_!</edu> <edu> there is little doubt <s>!_'
p324
sg17
I61
sg18
Nsg19
I59
sbsI62
g0
(g8
g2
Ntp325
Rp326
(dp327
g12
(lp328
sg14
I01
sg15
S"_!</edu> <edu> that the drug mafia 's terrorism someday will extend to all the newspapers <s>!_"
p329
sg17
I62
sg18
Nsg19
I58
sbsI63
g0
(g8
g2
Ntp330
Rp331
(dp332
g12
(lp333
sg14
I01
sg15
S'_!</edu> <edu> published in the free world . <s>!_'
p334
sg17
I63
sg18
Nsg19
I57
sbsI64
g0
(g8
g2
Ntp335
Rp336
(dp337
g12
(lp338
I65
aI78
asg14
I01
sg15
S'Elaboration[N][S]'
p339
sg17
I64
sg18
Nsg19
I32
sbsI65
g0
(g8
g2
Ntp340
Rp341
(dp342
g12
(lp343
I66
aI75
asg14
I01
sg15
S'Elaboration[N][S]'
p344
sg17
I65
sg18
Nsg19
I64
sbsI66
g0
(g8
g2
Ntp345
Rp346
(dp347
g12
(lp348
I67
aI70
asg14
I01
sg15
S'Elaboration[N][S]'
p349
sg17
I66
sg18
Nsg19
I65
sbsI67
g0
(g8
g2
Ntp350
Rp351
(dp352
g12
(lp353
I68
aI69
asg14
I01
sg15
S'Elaboration[N][S]'
p354
sg17
I67
sg18
Nsg19
I66
sbsI68
g0
(g8
g2
Ntp355
Rp356
(dp357
g12
(lp358
sg14
I01
sg15
S'_!</edu> <edu> The solidarity of the uncensored media world-wide against drug terrorism is the only way <s>!_'
p359
sg17
I68
sg18
Nsg19
I67
sbsI69
g0
(g8
g2
Ntp360
Rp361
(dp362
g12
(lp363
sg14
I01
sg15
S'_!</edu> <edu> press freedom can survive . <s>!_'
p364
sg17
I69
sg18
Nsg19
I67
sbsI70
g0
(g8
g2
Ntp365
Rp366
(dp367
g12
(lp368
I71
aI74
asg14
I01
sg15
S'Elaboration[N][S]'
p369
sg17
I70
sg18
Nsg19
I66
sbsI71
g0
(g8
g2
Ntp370
Rp371
(dp372
g12
(lp373
I72
aI73
asg14
I01
sg15
S'Attribution[S][N]'
p374
sg17
I71
sg18
Nsg19
I70
sbsI72
g0
(g8
g2
Ntp375
Rp376
(dp377
g12
(lp378
sg14
I01
sg15
S'_!</edu> <edu>!_'
p379
sg17
I72
sg18
Nsg19
I71
sbsI73
g0
(g8
g2
Ntp380
Rp381
(dp382
g12
(lp383
sg14
I01
sg15
S'_!The American people and their government also woke up too late to the menace <s>!_'
p384
sg17
I73
sg18
Nsg19
I71
sbsI74
g0
(g8
g2
Ntp385
Rp386
(dp387
g12
(lp388
sg14
I01
sg15
S'_!</edu> <edu> drugs posed to the moral structure of their country . <s>!_'
p389
sg17
I74
sg18
Nsg19
I70
sbsI75
g0
(g8
g2
Ntp390
Rp391
(dp392
g12
(lp393
I76
aI77
asg14
I01
sg15
S'Elaboration[N][S]'
p394
sg17
I75
sg18
Nsg19
I65
sbsI76
g0
(g8
g2
Ntp395
Rp396
(dp397
g12
(lp398
sg14
I01
sg15
S'_!</edu> <edu> Even now , the American attack upon this tremendous problem is timid in relation </edu>!_'
p399
sg17
I76
sg18
Nsg19
I75
sbsI77
g0
(g8
g2
Ntp400
Rp401
(dp402
g12
(lp403
sg14
I01
sg15
S'_!<edu> to the magnitude of the threat . <s>!_'
p404
sg17
I77
sg18
Nsg19
I75
sbsI78
g0
(g8
g2
Ntp405
Rp406
(dp407
g12
(lp408
I79
aI80
asg14
I01
sg15
S'Elaboration[N][S]'
p409
sg17
I78
sg18
Nsg19
I64
sbsI79
g0
(g8
g2
Ntp410
Rp411
(dp412
g12
(lp413
sg14
I01
sg15
S'_!</edu> <edu> I can attest <s>!_'
p414
sg17
I79
sg18
Nsg19
I78
sbsI80
g0
(g8
g2
Ntp415
Rp416
(dp417
g12
(lp418
I81
aI82
asg14
I01
sg15
S'Elaboration[N][S]'
p419
sg17
I80
sg18
Nsg19
I78
sbsI81
g0
(g8
g2
Ntp420
Rp421
(dp422
g12
(lp423
sg14
I01
sg15
S"_!</edu> <edu> that a recent Colombian visitor to the U.S. was offered drugs three times in the few blocks ' walk between Grand Central Terminal and the Waldorf Astoria Hotel in midtown Manhattan . <s>!_"
p424
sg17
I81
sg18
Nsg19
I80
sbsI82
g0
(g8
g2
Ntp425
Rp426
(dp427
g12
(lp428
sg14
I01
sg15
S'_!</edu> <edu> Colombia alone <s>!_'
p429
sg17
I82
sg18
Nsg19
I80
sbsI83
g0
(g8
g2
Ntp430
Rp431
(dp432
g12
(lp433
I84
aI87
asg14
I01
sg15
S'Elaboration[N][S]'
p434
sg17
I83
sg18
Nsg19
I31
sbsI84
g0
(g8
g2
Ntp435
Rp436
(dp437
g12
(lp438
I85
aI86
asg14
I01
sg15
S'Elaboration[N][S]'
p439
sg17
I84
sg18
Nsg19
I83
sbsI85
g0
(g8
g2
Ntp440
Rp441
(dp442
g12
(lp443
sg14
I01
sg15
S'_!</edu> <edu> -- its government , its people , its newspapers -- <s>!_'
p444
sg17
I85
sg18
Nsg19
I84
sbsI86
g0
(g8
g2
Ntp445
Rp446
(dp447
g12
(lp448
sg14
I01
sg15
S'_!</edu> <edu> does not have the capacity <s>!_'
p449
sg17
I86
sg18
Nsg19
I84
sbsI87
g0
(g8
g2
Ntp450
Rp451
(dp452
g12
(lp453
sg14
I01
sg15
S'_!</edu> <edu> to fight this battle successfully . <s>!_'
p454
sg17
I87
sg18
Nsg19
I83
sbsI88
g0
(g8
g2
Ntp455
Rp456
(dp457
g12
(lp458
I89
aI142
asg14
I01
sg15
S'Elaboration[N][S]'
p459
sg17
I88
sg18
Nsg19
I0
sbsI89
g0
(g8
g2
Ntp460
Rp461
(dp462
g12
(lp463
I90
aI125
asg14
I01
sg15
S'Elaboration[N][S]'
p464
sg17
I89
sg18
Nsg19
I88
sbsI90
g0
(g8
g2
Ntp465
Rp466
(dp467
g12
(lp468
I91
aI124
asg14
I01
sg15
S'Elaboration[N][S]'
p469
sg17
I90
sg18
Nsg19
I89
sbsI91
g0
(g8
g2
Ntp470
Rp471
(dp472
g12
(lp473
I92
aI111
asg14
I01
sg15
S'Elaboration[N][S]'
p474
sg17
I91
sg18
Nsg19
I90
sbsI92
g0
(g8
g2
Ntp475
Rp476
(dp477
g12
(lp478
I93
aI100
asg14
I01
sg15
S'Elaboration[N][S]'
p479
sg17
I92
sg18
Nsg19
I91
sbsI93
g0
(g8
g2
Ntp480
Rp481
(dp482
g12
(lp483
I94
aI99
asg14
I01
sg15
S'Elaboration[N][S]'
p484
sg17
I93
sg18
Nsg19
I92
sbsI94
g0
(g8
g2
Ntp485
Rp486
(dp487
g12
(lp488
I95
aI98
asg14
I01
sg15
S'Elaboration[N][S]'
p489
sg17
I94
sg18
Nsg19
I93
sbsI95
g0
(g8
g2
Ntp490
Rp491
(dp492
g12
(lp493
I96
aI97
asg14
I01
sg15
S'Elaboration[N][S]'
p494
sg17
I95
sg18
Nsg19
I94
sbsI96
g0
(g8
g2
Ntp495
Rp496
(dp497
g12
(lp498
sg14
I01
sg15
S'_!</edu> <edu> All drug-consuming countries must jointly decide to combat and punish the consumers and distributors of drugs . <s>!_'
p499
sg17
I96
sg18
Nsg19
I95
sbsI97
g0
(g8
g2
Ntp500
Rp501
(dp502
g12
(lp503
sg14
I01
sg15
S'_!</edu> <edu> The U.S. , </edu> <edu> as the major drug consumer , should lead this joint effort . <s>!_'
p504
sg17
I97
sg18
Nsg19
I95
sbsI98
g0
(g8
g2
Ntp505
Rp506
(dp507
g12
(lp508
sg14
I01
sg15
S'_!</edu> <edu> Reduction , if not the total cessation , of drug consumption is the requirement for victory . <s>!_'
p509
sg17
I98
sg18
Nsg19
I94
sbsI99
g0
(g8
g2
Ntp510
Rp511
(dp512
g12
(lp513
sg14
I01
sg15
S'_!</edu> <edu> Much is being done in Colombia <s>!_'
p514
sg17
I99
sg18
Nsg19
I93
sbsI100
g0
(g8
g2
Ntp515
Rp516
(dp517
g12
(lp518
I101
aI110
asg14
I01
sg15
S'Elaboration[N][S]'
p519
sg17
I100
sg18
Nsg19
I92
sbsI101
g0
(g8
g2
Ntp520
Rp521
(dp522
g12
(lp523
I102
aI103
asg14
I01
sg15
S'Elaboration[N][S]'
p524
sg17
I101
sg18
Nsg19
I100
sbsI102
g0
(g8
g2
Ntp525
Rp526
(dp527
g12
(lp528
sg14
I01
sg15
S'_!</edu> <edu> to fight the drug cartel mafia . <s>!_'
p529
sg17
I102
sg18
Nsg19
I101
sbsI103
g0
(g8
g2
Ntp530
Rp531
(dp532
g12
(lp533
I104
aI105
asg14
I01
sg15
S'Elaboration[N][S]'
p534
sg17
I103
sg18
Nsg19
I101
sbsI104
g0
(g8
g2
Ntp535
Rp536
(dp537
g12
(lp538
sg14
I01
sg15
S'_!</edu> <edu> Luxurious homes and ranches have been raided by the military authorities , <s>!_'
p539
sg17
I104
sg18
Nsg19
I103
sbsI105
g0
(g8
g2
Ntp540
Rp541
(dp542
g12
(lp543
I106
aI107
asg14
I01
sg15
S'Elaboration[N][S]'
p544
sg17
I105
sg18
Nsg19
I103
sbsI106
g0
(g8
g2
Ntp545
Rp546
(dp547
g12
(lp548
sg14
I01
sg15
S'_!</edu> <edu> and sophisticated and powerful communications </edu> <edu> equipment have been seized . <s>!_'
p549
sg17
I106
sg18
Nsg19
I105
sbsI107
g0
(g8
g2
Ntp550
Rp551
(dp552
g12
(lp553
I108
aI109
asg14
I01
sg15
S'Elaboration[N][S]'
p554
sg17
I107
sg18
Nsg19
I105
sbsI108
g0
(g8
g2
Ntp555
Rp556
(dp557
g12
(lp558
sg14
I01
sg15
S'_!</edu> <edu> More than 300 planes and helicopters have been impounded at airports , <s>!_'
p559
sg17
I108
sg18
Nsg19
I107
sbsI109
g0
(g8
g2
Ntp560
Rp561
(dp562
g12
(lp563
sg14
I01
sg15
S'_!</edu> <edu> and a large number of vehicles and launches has been confiscated . <s>!_'
p564
sg17
I109
sg18
Nsg19
I107
sbsI110
g0
(g8
g2
Ntp565
Rp566
(dp567
g12
(lp568
sg14
I01
sg15
S'_!</edu> <edu> The military has also captured enormous arsenals of powerful and sophisticated weapons , explosives and other war-like materiel . <s>!_'
p569
sg17
I110
sg18
Nsg19
I100
sbsI111
g0
(g8
g2
Ntp570
Rp571
(dp572
g12
(lp573
I112
aI119
asg14
I01
sg15
S'Elaboration[N][S]'
p574
sg17
I111
sg18
Nsg19
I91
sbsI112
g0
(g8
g2
Ntp575
Rp576
(dp577
g12
(lp578
I113
aI118
asg14
I01
sg15
S'Elaboration[N][S]'
p579
sg17
I112
sg18
Nsg19
I111
sbsI113
g0
(g8
g2
Ntp580
Rp581
(dp582
g12
(lp583
I114
aI115
asg14
I01
sg15
S'Elaboration[N][S]'
p584
sg17
I113
sg18
Nsg19
I112
sbsI114
g0
(g8
g2
Ntp585
Rp586
(dp587
g12
(lp588
sg14
I01
sg15
S'_!</edu> <edu> Much has been accomplished <s>!_'
p589
sg17
I114
sg18
Nsg19
I113
sbsI115
g0
(g8
g2
Ntp590
Rp591
(dp592
g12
(lp593
I116
aI117
asg14
I01
sg15
S'Joint[N][N]'
p594
sg17
I115
sg18
Nsg19
I113
sbsI116
g0
(g8
g2
Ntp595
Rp596
(dp597
g12
(lp598
sg14
I01
sg15
S'_!</edu> <edu>!_'
p599
sg17
I116
sg18
Nsg19
I115
sbsI117
g0
(g8
g2
Ntp600
Rp601
(dp602
g12
(lp603
sg14
I01
sg15
S'_!and public opinion </edu> <edu> decisively supports the government and the army <s>!_'
p604
sg17
I117
sg18
Nsg19
I115
sbsI118
g0
(g8
g2
Ntp605
Rp606
(dp607
g12
(lp608
sg14
I01
sg15
S'_!</edu> <edu> -- </edu> <edu> but , on the other hand , none of the key drug barons have been captured . <s>!_'
p609
sg17
I118
sg18
Nsg19
I112
sbsI119
g0
(g8
g2
Ntp610
Rp611
(dp612
g12
(lp613
I120
aI123
asg14
I01
sg15
S'Elaboration[N][S]'
p614
sg17
I119
sg18
Nsg19
I111
sbsI120
g0
(g8
g2
Ntp615
Rp616
(dp617
g12
(lp618
I121
aI122
asg14
I01
sg15
S'Elaboration[N][S]'
p619
sg17
I120
sg18
Nsg19
I119
sbsI121
g0
(g8
g2
Ntp620
Rp621
(dp622
g12
(lp623
sg14
I01
sg15
S'_!</edu> <edu> There has been a lot of talk <s>!_'
p624
sg17
I121
sg18
Nsg19
I120
sbsI122
g0
(g8
g2
Ntp625
Rp626
(dp627
g12
(lp628
sg14
I01
sg15
S'_!</edu> <edu> that a large portion of the Colombian economy is sustained by the laundering of drug money . <s>!_'
p629
sg17
I122
sg18
Nsg19
I120
sbsI123
g0
(g8
g2
Ntp630
Rp631
(dp632
g12
(lp633
sg14
I01
sg15
S'_!</edu> <edu> In my opinion , </edu> <edu> this is not true . <s>!_'
p634
sg17
I123
sg18
Nsg19
I119
sbsI124
g0
(g8
g2
Ntp635
Rp636
(dp637
g12
(lp638
sg14
I01
sg15
S'_!</edu> <edu> Laundered drug money has served only to increase , unrealistically , the price of real estate , <s>!_'
p639
sg17
I124
sg18
Nsg19
I90
sbsI125
g0
(g8
g2
Ntp640
Rp641
(dp642
g12
(lp643
I126
aI135
asg14
I01
sg15
S'Elaboration[N][S]'
p644
sg17
I125
sg18
Nsg19
I89
sbsI126
g0
(g8
g2
Ntp645
Rp646
(dp647
g12
(lp648
I127
aI130
asg14
I01
sg15
S'Elaboration[N][S]'
p649
sg17
I126
sg18
Nsg19
I125
sbsI127
g0
(g8
g2
Ntp650
Rp651
(dp652
g12
(lp653
I128
aI129
asg14
I01
sg15
S'same-unit[N][N]'
p654
sg17
I127
sg18
Nsg19
I126
sbsI128
g0
(g8
g2
Ntp655
Rp656
(dp657
g12
(lp658
sg14
I01
sg15
S'_!</edu> <edu>!_'
p659
sg17
I128
sg18
Nsg19
I127
sbsI129
g0
(g8
g2
Ntp660
Rp661
(dp662
g12
(lp663
sg14
I01
sg15
S'_!creating serious problems for low-income people <s>!_'
p664
sg17
I129
sg18
Nsg19
I127
sbsI130
g0
(g8
g2
Ntp665
Rp666
(dp667
g12
(lp668
I131
aI134
asg14
I01
sg15
S'Elaboration[N][S]'
p669
sg17
I130
sg18
Nsg19
I126
sbsI131
g0
(g8
g2
Ntp670
Rp671
(dp672
g12
(lp673
I132
aI133
asg14
I01
sg15
S'Attribution[S][N]'
p674
sg17
I131
sg18
Nsg19
I130
sbsI132
g0
(g8
g2
Ntp675
Rp676
(dp677
g12
(lp678
sg14
I01
sg15
S'_!</edu> <edu>!_'
p679
sg17
I132
sg18
Nsg19
I131
sbsI133
g0
(g8
g2
Ntp680
Rp681
(dp682
g12
(lp683
sg14
I01
sg15
S'_!who aspire to own their own homes . <s>!_'
p684
sg17
I133
sg18
Nsg19
I131
sbsI134
g0
(g8
g2
Ntp685
Rp686
(dp687
g12
(lp688
sg14
I01
sg15
S'_!</edu> <edu> Drug money has also gone <s>!_'
p689
sg17
I134
sg18
Nsg19
I130
sbsI135
g0
(g8
g2
Ntp690
Rp691
(dp692
g12
(lp693
I136
aI137
asg14
I01
sg15
S'Elaboration[N][S]'
p694
sg17
I135
sg18
Nsg19
I125
sbsI136
g0
(g8
g2
Ntp695
Rp696
(dp697
g12
(lp698
sg14
I01
sg15
S'_!</edu> <edu> to buy expensive cars , airplanes , launches and nightclubs <s>!_'
p699
sg17
I136
sg18
Nsg19
I135
sbsI137
g0
(g8
g2
Ntp700
Rp701
(dp702
g12
(lp703
I138
aI141
asg14
I01
sg15
S'Explanation[N][S]'
p704
sg17
I137
sg18
Nsg19
I135
sbsI138
g0
(g8
g2
Ntp705
Rp706
(dp707
g12
(lp708
I139
aI140
asg14
I01
sg15
S'Attribution[S][N]'
p709
sg17
I138
sg18
Nsg19
I137
sbsI139
g0
(g8
g2
Ntp710
Rp711
(dp712
g12
(lp713
sg14
I01
sg15
S'_!</edu> <edu>!_'
p714
sg17
I139
sg18
Nsg19
I138
sbsI140
g0
(g8
g2
Ntp715
Rp716
(dp717
g12
(lp718
sg14
I01
sg15
S'_!where drugs are consumed . <s>!_'
p719
sg17
I140
sg18
Nsg19
I138
sbsI141
g0
(g8
g2
Ntp720
Rp721
(dp722
g12
(lp723
sg14
I01
sg15
S'_!</edu> <edu> But most of the drug money is kept in investments and in financial institutions outside Colombia . <s>!_'
p724
sg17
I141
sg18
Nsg19
I137
sbsI142
g0
(g8
g2
Ntp725
Rp726
(dp727
g12
(lp728
I143
aI196
asg14
I01
sg15
S'Elaboration[N][S]'
p729
sg17
I142
sg18
Nsg19
I88
sbsI143
g0
(g8
g2
Ntp730
Rp731
(dp732
g12
(lp733
I144
aI179
asg14
I01
sg15
S'Elaboration[N][S]'
p734
sg17
I143
sg18
Nsg19
I142
sbsI144
g0
(g8
g2
Ntp735
Rp736
(dp737
g12
(lp738
I145
aI148
asg14
I01
sg15
S'Elaboration[N][S]'
p739
sg17
I144
sg18
Nsg19
I143
sbsI145
g0
(g8
g2
Ntp740
Rp741
(dp742
g12
(lp743
I146
aI147
asg14
I01
sg15
S'Elaboration[N][S]'
p744
sg17
I145
sg18
Nsg19
I144
sbsI146
g0
(g8
g2
Ntp745
Rp746
(dp747
g12
(lp748
sg14
I01
sg15
S'_!</edu> <edu> In fact , the cooperation of those financial institutions is essential to the success of the drug battle . <s>!_'
p749
sg17
I146
sg18
Nsg19
I145
sbsI147
g0
(g8
g2
Ntp750
Rp751
(dp752
g12
(lp753
sg14
I01
sg15
S"_!</edu> <edu> What is of much more importance to the Colombian economy than the supposed benefits of laundered drug money is higher prices for Colombia 's legitimate products . <s>!_"
p754
sg17
I147
sg18
Nsg19
I145
sbsI148
g0
(g8
g2
Ntp755
Rp756
(dp757
g12
(lp758
I149
aI178
asg14
I01
sg15
S'Elaboration[N][S]'
p759
sg17
I148
sg18
Nsg19
I144
sbsI149
g0
(g8
g2
Ntp760
Rp761
(dp762
g12
(lp763
I150
aI165
asg14
I01
sg15
S'Elaboration[N][S]'
p764
sg17
I149
sg18
Nsg19
I148
sbsI150
g0
(g8
g2
Ntp765
Rp766
(dp767
g12
(lp768
I151
aI164
asg14
I01
sg15
S'Elaboration[N][S]'
p769
sg17
I150
sg18
Nsg19
I149
sbsI151
g0
(g8
g2
Ntp770
Rp771
(dp772
g12
(lp773
I152
aI163
asg14
I01
sg15
S'Elaboration[N][S]'
p774
sg17
I151
sg18
Nsg19
I150
sbsI152
g0
(g8
g2
Ntp775
Rp776
(dp777
g12
(lp778
I153
aI158
asg14
I01
sg15
S'Elaboration[N][S]'
p779
sg17
I152
sg18
Nsg19
I151
sbsI153
g0
(g8
g2
Ntp780
Rp781
(dp782
g12
(lp783
I154
aI155
asg14
I01
sg15
S'Elaboration[N][S]'
p784
sg17
I153
sg18
Nsg19
I152
sbsI154
g0
(g8
g2
Ntp785
Rp786
(dp787
g12
(lp788
sg14
I01
sg15
S'_!</edu> <edu> The price of coffee has gone down almost 45 % since the beginning of the year , to the lowest level <s>!_'
p789
sg17
I154
sg18
Nsg19
I153
sbsI155
g0
(g8
g2
Ntp790
Rp791
(dp792
g12
(lp793
I156
aI157
asg14
I01
sg15
S'Elaboration[N][S]'
p794
sg17
I155
sg18
Nsg19
I153
sbsI156
g0
(g8
g2
Ntp795
Rp796
(dp797
g12
(lp798
sg14
I01
sg15
S'_!</edu> <edu>!_'
p799
sg17
I156
sg18
Nsg19
I155
sbsI157
g0
(g8
g2
Ntp800
Rp801
(dp802
g12
(lp803
sg14
I01
sg15
S'_!( after inflation ) <s>!_'
p804
sg17
I157
sg18
Nsg19
I155
sbsI158
g0
(g8
g2
Ntp805
Rp806
(dp807
g12
(lp808
I159
aI162
asg14
I01
sg15
S'Elaboration[N][S]'
p809
sg17
I158
sg18
Nsg19
I152
sbsI159
g0
(g8
g2
Ntp810
Rp811
(dp812
g12
(lp813
I160
aI161
asg14
I01
sg15
S'Elaboration[N][S]'
p814
sg17
I159
sg18
Nsg19
I158
sbsI160
g0
(g8
g2
Ntp815
Rp816
(dp817
g12
(lp818
sg14
I01
sg15
S'_!</edu> <edu> since the Great Depression . <s>!_'
p819
sg17
I160
sg18
Nsg19
I159
sbsI161
g0
(g8
g2
Ntp820
Rp821
(dp822
g12
(lp823
sg14
I01
sg15
S'_!</edu> <edu> Market conditions point to even lower prices next year . <s>!_'
p824
sg17
I161
sg18
Nsg19
I159
sbsI162
g0
(g8
g2
Ntp825
Rp826
(dp827
g12
(lp828
sg14
I01
sg15
S'_!</edu> <edu> The 27-year-old coffee cartel had to be formally dissolved this summer . <s>!_'
p829
sg17
I162
sg18
Nsg19
I158
sbsI163
g0
(g8
g2
Ntp830
Rp831
(dp832
g12
(lp833
sg14
I01
sg15
S'_!</edu> <edu> As a result , Colombia will earn $ 500 million less from its coffee this year than last . <s>!_'
p834
sg17
I163
sg18
Nsg19
I151
sbsI164
g0
(g8
g2
Ntp835
Rp836
(dp837
g12
(lp838
sg14
I01
sg15
S'_!</edu> <edu> Our coffee growers face reductions in their income , <s>!_'
p839
sg17
I164
sg18
Nsg19
I150
sbsI165
g0
(g8
g2
Ntp840
Rp841
(dp842
g12
(lp843
I166
aI173
asg14
I01
sg15
S'Elaboration[N][S]'
p844
sg17
I165
sg18
Nsg19
I149
sbsI166
g0
(g8
g2
Ntp845
Rp846
(dp847
g12
(lp848
I167
aI170
asg14
I01
sg15
S'Elaboration[N][S]'
p849
sg17
I166
sg18
Nsg19
I165
sbsI167
g0
(g8
g2
Ntp850
Rp851
(dp852
g12
(lp853
I168
aI169
asg14
I01
sg15
S'Elaboration[N][S]'
p854
sg17
I167
sg18
Nsg19
I166
sbsI168
g0
(g8
g2
Ntp855
Rp856
(dp857
g12
(lp858
sg14
I01
sg15
S'_!</edu> <edu> and this tempts them to contemplate substituting coca crops for coffee . <s>!_'
p859
sg17
I168
sg18
Nsg19
I167
sbsI169
g0
(g8
g2
Ntp860
Rp861
(dp862
g12
(lp863
sg14
I01
sg15
S'_!</edu> <edu> U.S. interests occasionally try to impose barriers to the import of another important Colombian export <s>!_'
p864
sg17
I169
sg18
Nsg19
I167
sbsI170
g0
(g8
g2
Ntp865
Rp866
(dp867
g12
(lp868
I171
aI172
asg14
I01
sg15
S'Elaboration[N][S]'
p869
sg17
I170
sg18
Nsg19
I166
sbsI171
g0
(g8
g2
Ntp870
Rp871
(dp872
g12
(lp873
sg14
I01
sg15
S'_!</edu> <edu> -- cut flowers -- <s>!_'
p874
sg17
I171
sg18
Nsg19
I170
sbsI172
g0
(g8
g2
Ntp875
Rp876
(dp877
g12
(lp878
sg14
I01
sg15
S'_!</edu> <edu> into the American market . <s>!_'
p879
sg17
I172
sg18
Nsg19
I170
sbsI173
g0
(g8
g2
Ntp880
Rp881
(dp882
g12
(lp883
I174
aI177
asg14
I01
sg15
S'Elaboration[N][S]'
p884
sg17
I173
sg18
Nsg19
I165
sbsI174
g0
(g8
g2
Ntp885
Rp886
(dp887
g12
(lp888
I175
aI176
asg14
I01
sg15
S'Elaboration[N][S]'
p889
sg17
I174
sg18
Nsg19
I173
sbsI175
g0
(g8
g2
Ntp890
Rp891
(dp892
g12
(lp893
sg14
I01
sg15
S'_!</edu> <edu> A just price and an open market <s>!_'
p894
sg17
I175
sg18
Nsg19
I174
sbsI176
g0
(g8
g2
Ntp895
Rp896
(dp897
g12
(lp898
sg14
I01
sg15
S'_!</edu> <edu> for what Colombian produces and exports <s>!_'
p899
sg17
I176
sg18
Nsg19
I174
sbsI177
g0
(g8
g2
Ntp900
Rp901
(dp902
g12
(lp903
sg14
I01
sg15
S'_!</edu> <edu> should be the policy of the U.S. <s>!_'
p904
sg17
I177
sg18
Nsg19
I173
sbsI178
g0
(g8
g2
Ntp905
Rp906
(dp907
g12
(lp908
sg14
I01
sg15
S'_!</edu> <edu> I take advantage of this opportunity <s>!_'
p909
sg17
I178
sg18
Nsg19
I148
sbsI179
g0
(g8
g2
Ntp910
Rp911
(dp912
g12
(lp913
I180
aI181
asg14
I01
sg15
S'Elaboration[N][S]'
p914
sg17
I179
sg18
Nsg19
I143
sbsI180
g0
(g8
g2
Ntp915
Rp916
(dp917
g12
(lp918
sg14
I01
sg15
S'_!</edu> <edu> given to me by The Wall Street Journal <s>!_'
p919
sg17
I180
sg18
Nsg19
I179
sbsI181
g0
(g8
g2
Ntp920
Rp921
(dp922
g12
(lp923
I182
aI183
asg14
I01
sg15
S'Elaboration[N][S]'
p924
sg17
I181
sg18
Nsg19
I179
sbsI182
g0
(g8
g2
Ntp925
Rp926
(dp927
g12
(lp928
sg14
I01
sg15
S'_!</edu> <edu> to make a plea to the millions of readers of this newspaper , <s>!_'
p929
sg17
I182
sg18
Nsg19
I181
sbsI183
g0
(g8
g2
Ntp930
Rp931
(dp932
g12
(lp933
I184
aI185
asg14
I01
sg15
S'Elaboration[N][S]'
p934
sg17
I183
sg18
Nsg19
I181
sbsI184
g0
(g8
g2
Ntp935
Rp936
(dp937
g12
(lp938
sg14
I01
sg15
S'_!</edu> <edu> to become soldiers <s>!_'
p939
sg17
I184
sg18
Nsg19
I183
sbsI185
g0
(g8
g2
Ntp940
Rp941
(dp942
g12
(lp943
I186
aI187
asg14
I01
sg15
S'Elaboration[N][S]'
p944
sg17
I185
sg18
Nsg19
I183
sbsI186
g0
(g8
g2
Ntp945
Rp946
(dp947
g12
(lp948
sg14
I01
sg15
S'_!</edu> <edu> dedicated to the fight against the use of drugs . <s>!_'
p949
sg17
I186
sg18
Nsg19
I185
sbsI187
g0
(g8
g2
Ntp950
Rp951
(dp952
g12
(lp953
I188
aI189
asg14
I01
sg15
S'Elaboration[N][S]'
p954
sg17
I187
sg18
Nsg19
I185
sbsI188
g0
(g8
g2
Ntp955
Rp956
(dp957
g12
(lp958
sg14
I01
sg15
S'_!</edu> <edu> Each gram of cocaine </edu> <edu> consumed is a deadly bullet against those in our country and in the rest of the world <s>!_'
p959
sg17
I188
sg18
Nsg19
I187
sbsI189
g0
(g8
g2
Ntp960
Rp961
(dp962
g12
(lp963
I190
aI195
asg14
I01
sg15
S'Elaboration[N][S]'
p964
sg17
I189
sg18
Nsg19
I187
sbsI190
g0
(g8
g2
Ntp965
Rp966
(dp967
g12
(lp968
I191
aI194
asg14
I01
sg15
S'Elaboration[N][S]'
p969
sg17
I190
sg18
Nsg19
I189
sbsI191
g0
(g8
g2
Ntp970
Rp971
(dp972
g12
(lp973
I192
aI193
asg14
I01
sg15
S'Attribution[S][N]'
p974
sg17
I191
sg18
Nsg19
I190
sbsI192
g0
(g8
g2
Ntp975
Rp976
(dp977
g12
(lp978
sg14
I01
sg15
S'_!</edu> <edu>!_'
p979
sg17
I192
sg18
Nsg19
I191
sbsI193
g0
(g8
g2
Ntp980
Rp981
(dp982
g12
(lp983
sg14
I01
sg15
S'_!who fight this terrible scourge . <s>!_'
p984
sg17
I193
sg18
Nsg19
I191
sbsI194
g0
(g8
g2
Ntp985
Rp986
(dp987
g12
(lp988
sg14
I01
sg15
S'_!</edu> <edu> A crusade of NO to the consumption of drugs is imperative . <s>!_'
p989
sg17
I194
sg18
Nsg19
I190
sbsI195
g0
(g8
g2
Ntp990
Rp991
(dp992
g12
(lp993
sg14
I01
sg15
S'_!</edu> <edu> Mr. Cano is president of El Espectador , a newspaper <s>!_'
p994
sg17
I195
sg18
Nsg19
I189
sbsI196
g0
(g8
g2
Ntp995
Rp996
(dp997
g12
(lp998
sg14
I01
sg15
S'_!</edu> <edu> founded by <s>!_'
p999
sg17
I196
sg18
Nsg19
I142
sbssS'root'
p1000
I0
sb.