ccopy_reg
_reconstructor
p0
(ctreelib.tree
Tree
p1
c__builtin__
object
p2
Ntp3
Rp4
(dp5
S'_nodes'
p6
(dp7
I0
g0
(ctreelib.node
Node
p8
g2
Ntp9
Rp10
(dp11
S'_fpointer'
p12
(lp13
I1
aI36
asS'expanded'
p14
I01
sS'_tag'
p15
S'Topic-Change[N][N]'
p16
sS'_identifier'
p17
I0
sS'data'
p18
NsS'_bpointer'
p19
NsbsI1
g0
(g8
g2
Ntp20
Rp21
(dp22
g12
(lp23
I2
aI15
asg14
I01
sg15
S'Topic-Change[N][N]'
p24
sg17
I1
sg18
Nsg19
I0
sbsI2
g0
(g8
g2
Ntp25
Rp26
(dp27
g12
(lp28
I3
aI8
asg14
I01
sg15
S'Temporal[N][N]'
p29
sg17
I2
sg18
Nsg19
I1
sbsI3
g0
(g8
g2
Ntp30
Rp31
(dp32
g12
(lp33
I4
aI7
asg14
I01
sg15
S'Explanation[N][S]'
p34
sg17
I3
sg18
Nsg19
I2
sbsI4
g0
(g8
g2
Ntp35
Rp36
(dp37
g12
(lp38
I5
aI6
asg14
I01
sg15
S'Temporal[N][N]'
p39
sg17
I4
sg18
Nsg19
I3
sbsI5
g0
(g8
g2
Ntp40
Rp41
(dp42
g12
(lp43
sg14
I01
sg15
S'_!The dollar finished lower yesterday , <s>!_'
p44
sg17
I5
sg18
Nsg19
I4
sbsI6
g0
(g8
g2
Ntp45
Rp46
(dp47
g12
(lp48
sg14
I01
sg15
S'_!after tracking another rollercoaster session on Wall Street . <s>!_'
p49
sg17
I6
sg18
Nsg19
I4
sbsI7
g0
(g8
g2
Ntp50
Rp51
(dp52
g12
(lp53
sg14
I01
sg15
S'_!Concern about the volatile U.S. stock market had faded in recent sessions , <s>!_'
p54
sg17
I7
sg18
Nsg19
I3
sbsI8
g0
(g8
g2
Ntp55
Rp56
(dp57
g12
(lp58
I9
aI12
asg14
I01
sg15
S'Contrast[N][N]'
p59
sg17
I8
sg18
Nsg19
I2
sbsI9
g0
(g8
g2
Ntp60
Rp61
(dp62
g12
(lp63
I10
aI11
asg14
I01
sg15
S'Explanation[N][S]'
p64
sg17
I9
sg18
Nsg19
I8
sbsI10
g0
(g8
g2
Ntp65
Rp66
(dp67
g12
(lp68
sg14
I01
sg15
S'_!and traders appeared content to let the dollar languish in a narrow range until tomorrow , <s>!_'
p69
sg17
I10
sg18
Nsg19
I9
sbsI11
g0
(g8
g2
Ntp70
Rp71
(dp72
g12
(lp73
sg14
I01
sg15
S'_!when the preliminary report on third-quarter U.S. gross national product is released . <s>!_'
p74
sg17
I11
sg18
Nsg19
I9
sbsI12
g0
(g8
g2
Ntp75
Rp76
(dp77
g12
(lp78
I13
aI14
asg14
I01
sg15
S'Elaboration[N][S]'
p79
sg17
I12
sg18
Nsg19
I8
sbsI13
g0
(g8
g2
Ntp80
Rp81
(dp82
g12
(lp83
sg14
I01
sg15
S'_!But seesaw gyrations in the Dow Jones Industrial Average yesterday put Wall Street back in the spotlight <s>!_'
p84
sg17
I13
sg18
Nsg19
I12
sbsI14
g0
(g8
g2
Ntp85
Rp86
(dp87
g12
(lp88
sg14
I01
sg15
S'_!and inspired market participants to bid the U.S. unit lower . <s>!_'
p89
sg17
I14
sg18
Nsg19
I12
sbsI15
g0
(g8
g2
Ntp90
Rp91
(dp92
g12
(lp93
I16
aI31
asg14
I01
sg15
S'Temporal[N][N]'
p94
sg17
I15
sg18
Nsg19
I1
sbsI16
g0
(g8
g2
Ntp95
Rp96
(dp97
g12
(lp98
I17
aI26
asg14
I01
sg15
S'Temporal[N][N]'
p99
sg17
I16
sg18
Nsg19
I15
sbsI17
g0
(g8
g2
Ntp100
Rp101
(dp102
g12
(lp103
I18
aI25
asg14
I01
sg15
S'Cause[S][N]'
p104
sg17
I17
sg18
Nsg19
I16
sbsI18
g0
(g8
g2
Ntp105
Rp106
(dp107
g12
(lp108
I19
aI24
asg14
I01
sg15
S'Cause[S][N]'
p109
sg17
I18
sg18
Nsg19
I17
sbsI19
g0
(g8
g2
Ntp110
Rp111
(dp112
g12
(lp113
I20
aI23
asg14
I01
sg15
S'textual-organization[N][N]'
p114
sg17
I19
sg18
Nsg19
I18
sbsI20
g0
(g8
g2
Ntp115
Rp116
(dp117
g12
(lp118
I21
aI22
asg14
I01
sg15
S'Enablement[N][S]'
p119
sg17
I20
sg18
Nsg19
I19
sbsI21
g0
(g8
g2
Ntp120
Rp121
(dp122
g12
(lp123
sg14
I01
sg15
S"_!UAL 's decision <s>!_"
p124
sg17
I21
sg18
Nsg19
I20
sbsI22
g0
(g8
g2
Ntp125
Rp126
(dp127
g12
(lp128
sg14
I01
sg15
S'_!to remain an independent company <s>!_'
p129
sg17
I22
sg18
Nsg19
I20
sbsI23
g0
(g8
g2
Ntp130
Rp131
(dp132
g12
(lp133
sg14
I01
sg15
S'_!sent share prices tumbling . <s>!_'
p134
sg17
I23
sg18
Nsg19
I19
sbsI24
g0
(g8
g2
Ntp135
Rp136
(dp137
g12
(lp138
sg14
I01
sg15
S'_!By midmorning , the DJIA had plunged 80 points <s>!_'
p139
sg17
I24
sg18
Nsg19
I18
sbsI25
g0
(g8
g2
Ntp140
Rp141
(dp142
g12
(lp143
sg14
I01
sg15
S'_!and foreign-exchange dealers quickly drove the dollar down . <s>!_'
p144
sg17
I25
sg18
Nsg19
I17
sbsI26
g0
(g8
g2
Ntp145
Rp146
(dp147
g12
(lp148
I27
aI28
asg14
I01
sg15
S'Explanation[N][S]'
p149
sg17
I26
sg18
Nsg19
I16
sbsI27
g0
(g8
g2
Ntp150
Rp151
(dp152
g12
(lp153
sg14
I01
sg15
S'_!When the DJIA modestly rebounded , <s>!_'
p154
sg17
I27
sg18
Nsg19
I26
sbsI28
g0
(g8
g2
Ntp155
Rp156
(dp157
g12
(lp158
I29
aI30
asg14
I01
sg15
S'Contrast[S][N]'
p159
sg17
I28
sg18
Nsg19
I26
sbsI29
g0
(g8
g2
Ntp160
Rp161
(dp162
g12
(lp163
sg14
I01
sg15
S'_!the dollar bounced back in choppy dealings <s>!_'
p164
sg17
I29
sg18
Nsg19
I28
sbsI30
g0
(g8
g2
Ntp165
Rp166
(dp167
g12
(lp168
sg14
I01
sg15
S'_!but ended the day below the levels of late Monday . <s>!_'
p169
sg17
I30
sg18
Nsg19
I28
sbsI31
g0
(g8
g2
Ntp170
Rp171
(dp172
g12
(lp173
I32
aI35
asg14
I01
sg15
S'Joint[N][N]'
p174
sg17
I31
sg18
Nsg19
I15
sbsI32
g0
(g8
g2
Ntp175
Rp176
(dp177
g12
(lp178
I33
aI34
asg14
I01
sg15
S'Elaboration[N][S]'
p179
sg17
I32
sg18
Nsg19
I31
sbsI33
g0
(g8
g2
Ntp180
Rp181
(dp182
g12
(lp183
sg14
I01
sg15
S'_!Stock prices , meanwhile , posted significant gains in later trading <s>!_'
p184
sg17
I33
sg18
Nsg19
I32
sbsI34
g0
(g8
g2
Ntp185
Rp186
(dp187
g12
(lp188
sg14
I01
sg15
S'_!and closed down by only 3.69 points on the day . <s>!_'
p189
sg17
I34
sg18
Nsg19
I32
sbsI35
g0
(g8
g2
Ntp190
Rp191
(dp192
g12
(lp193
sg14
I01
sg15
S'_!Some dealers said <s>!_'
p194
sg17
I35
sg18
Nsg19
I31
sbsI36
g0
(g8
g2
Ntp195
Rp196
(dp197
g12
(lp198
I37
aI54
asg14
I01
sg15
S'Topic-Change[N][N]'
p199
sg17
I36
sg18
Nsg19
I0
sbsI37
g0
(g8
g2
Ntp200
Rp201
(dp202
g12
(lp203
I38
aI41
asg14
I01
sg15
S'Explanation[N][S]'
p204
sg17
I37
sg18
Nsg19
I36
sbsI38
g0
(g8
g2
Ntp205
Rp206
(dp207
g12
(lp208
I39
aI40
asg14
I01
sg15
S'Explanation[N][S]'
p209
sg17
I38
sg18
Nsg19
I37
sbsI39
g0
(g8
g2
Ntp210
Rp211
(dp212
g12
(lp213
sg14
I01
sg15
S"_!that the market 's strong reaction to Wall Street reflects a general uneasiness about the dollar . <s>!_"
p214
sg17
I39
sg18
Nsg19
I38
sbsI40
g0
(g8
g2
Ntp215
Rp216
(dp217
g12
(lp218
sg14
I01
sg15
S'_!They added <s>!_'
p219
sg17
I40
sg18
Nsg19
I38
sbsI41
g0
(g8
g2
Ntp220
Rp221
(dp222
g12
(lp223
I42
aI47
asg14
I01
sg15
S'Explanation[N][S]'
p224
sg17
I41
sg18
Nsg19
I37
sbsI42
g0
(g8
g2
Ntp225
Rp226
(dp227
g12
(lp228
I43
aI46
asg14
I01
sg15
S'Evaluation[N][S]'
p229
sg17
I42
sg18
Nsg19
I41
sbsI43
g0
(g8
g2
Ntp230
Rp231
(dp232
g12
(lp233
I44
aI45
asg14
I01
sg15
S'Explanation[N][S]'
p234
sg17
I43
sg18
Nsg19
I42
sbsI44
g0
(g8
g2
Ntp235
Rp236
(dp237
g12
(lp238
sg14
I01
sg15
S"_!that the DJIA 's swift drop proved an easy excuse for the market <s>!_"
p239
sg17
I44
sg18
Nsg19
I43
sbsI45
g0
(g8
g2
Ntp240
Rp241
(dp242
g12
(lp243
sg14
I01
sg15
S'_!to drive the U.S. currency in the direction <s>!_'
p244
sg17
I45
sg18
Nsg19
I43
sbsI46
g0
(g8
g2
Ntp245
Rp246
(dp247
g12
(lp248
sg14
I01
sg15
S'_!it was already headed . <s>!_'
p249
sg17
I46
sg18
Nsg19
I42
sbsI47
g0
(g8
g2
Ntp250
Rp251
(dp252
g12
(lp253
I48
aI51
asg14
I01
sg15
S'Joint[N][N]'
p254
sg17
I47
sg18
Nsg19
I41
sbsI48
g0
(g8
g2
Ntp255
Rp256
(dp257
g12
(lp258
I49
aI50
asg14
I01
sg15
S'Joint[N][N]'
p259
sg17
I48
sg18
Nsg19
I47
sbsI49
g0
(g8
g2
Ntp260
Rp261
(dp262
g12
(lp263
sg14
I01
sg15
S'_!In late New York trading yesterday , the dollar was quoted at 1.8355 marks , down from 1.8470 marks Monday ,!_'
p264
sg17
I49
sg18
Nsg19
I48
sbsI50
g0
(g8
g2
Ntp265
Rp266
(dp267
g12
(lp268
sg14
I01
sg15
S'_!and at 141.45 yen , down from 141.90 yen late Monday . <s>!_'
p269
sg17
I50
sg18
Nsg19
I48
sbsI51
g0
(g8
g2
Ntp270
Rp271
(dp272
g12
(lp273
I52
aI53
asg14
I01
sg15
S'Elaboration[N][S]'
p274
sg17
I51
sg18
Nsg19
I47
sbsI52
g0
(g8
g2
Ntp275
Rp276
(dp277
g12
(lp278
sg14
I01
sg15
S'_!Sterling was quoted at $ 1.6055 , up from $ 1.6030 late Monday . <s>!_'
p279
sg17
I52
sg18
Nsg19
I51
sbsI53
g0
(g8
g2
Ntp280
Rp281
(dp282
g12
(lp283
sg14
I01
sg15
S"_!In Tokyo Wednesday , the U.S. currency opened for trading at 141.57 yen , down from Tuesday 's Tokyo close of 142.10 yen . <s>!_"
p284
sg17
I53
sg18
Nsg19
I51
sbsI54
g0
(g8
g2
Ntp285
Rp286
(dp287
g12
(lp288
I55
aI98
asg14
I01
sg15
S'Elaboration[N][S]'
p289
sg17
I54
sg18
Nsg19
I36
sbsI55
g0
(g8
g2
Ntp290
Rp291
(dp292
g12
(lp293
I56
aI89
asg14
I01
sg15
S'Evaluation[N][S]'
p294
sg17
I55
sg18
Nsg19
I54
sbsI56
g0
(g8
g2
Ntp295
Rp296
(dp297
g12
(lp298
I57
aI78
asg14
I01
sg15
S'Elaboration[N][S]'
p299
sg17
I56
sg18
Nsg19
I55
sbsI57
g0
(g8
g2
Ntp300
Rp301
(dp302
g12
(lp303
I58
aI73
asg14
I01
sg15
S'Elaboration[N][S]'
p304
sg17
I57
sg18
Nsg19
I56
sbsI58
g0
(g8
g2
Ntp305
Rp306
(dp307
g12
(lp308
I59
aI72
asg14
I01
sg15
S'Elaboration[N][S]'
p309
sg17
I58
sg18
Nsg19
I57
sbsI59
g0
(g8
g2
Ntp310
Rp311
(dp312
g12
(lp313
I60
aI71
asg14
I01
sg15
S'Elaboration[N][S]'
p314
sg17
I59
sg18
Nsg19
I58
sbsI60
g0
(g8
g2
Ntp315
Rp316
(dp317
g12
(lp318
I61
aI70
asg14
I01
sg15
S'Elaboration[N][S]'
p319
sg17
I60
sg18
Nsg19
I59
sbsI61
g0
(g8
g2
Ntp320
Rp321
(dp322
g12
(lp323
I62
aI69
asg14
I01
sg15
S'Elaboration[N][S]'
p324
sg17
I61
sg18
Nsg19
I60
sbsI62
g0
(g8
g2
Ntp325
Rp326
(dp327
g12
(lp328
I63
aI68
asg14
I01
sg15
S'Elaboration[N][S]'
p329
sg17
I62
sg18
Nsg19
I61
sbsI63
g0
(g8
g2
Ntp330
Rp331
(dp332
g12
(lp333
I64
aI67
asg14
I01
sg15
S'Elaboration[N][S]'
p334
sg17
I63
sg18
Nsg19
I62
sbsI64
g0
(g8
g2
Ntp335
Rp336
(dp337
g12
(lp338
I65
aI66
asg14
I01
sg15
S'Elaboration[N][S]'
p339
sg17
I64
sg18
Nsg19
I63
sbsI65
g0
(g8
g2
Ntp340
Rp341
(dp342
g12
(lp343
sg14
I01
sg15
S"_!Tom Trettien , a vice president with Banque Paribas in New York , sees a break in the dollar 's long-term upward trend , a trend <s>!_"
p344
sg17
I65
sg18
Nsg19
I64
sbsI66
g0
(g8
g2
Ntp345
Rp346
(dp347
g12
(lp348
sg14
I01
sg15
S'_!that began in January 1988 . <s>!_'
p349
sg17
I66
sg18
Nsg19
I64
sbsI67
g0
(g8
g2
Ntp350
Rp351
(dp352
g12
(lp353
sg14
I01
sg15
S'_!He argues <s>!_'
p354
sg17
I67
sg18
Nsg19
I63
sbsI68
g0
(g8
g2
Ntp355
Rp356
(dp357
g12
(lp358
sg14
I01
sg15
S'_!that the dollar is now " moving sideways , " <s>!_'
p359
sg17
I68
sg18
Nsg19
I62
sbsI69
g0
(g8
g2
Ntp360
Rp361
(dp362
g12
(lp363
sg14
I01
sg15
S'_!adding <s>!_'
p364
sg17
I69
sg18
Nsg19
I61
sbsI70
g0
(g8
g2
Ntp365
Rp366
(dp367
g12
(lp368
sg14
I01
sg15
S'_!that " the next leg could be the beginning of a longer term bearish phase . " <s>!_'
p369
sg17
I70
sg18
Nsg19
I60
sbsI71
g0
(g8
g2
Ntp370
Rp371
(dp372
g12
(lp373
sg14
I01
sg15
S"_!Analysts peg the dollar 's recent weakness to an underlying slowdown in the U.S. economy , <s>!_"
p374
sg17
I71
sg18
Nsg19
I59
sbsI72
g0
(g8
g2
Ntp375
Rp376
(dp377
g12
(lp378
sg14
I01
sg15
S'_!highlighted by recent economic data , particularly a surprisingly sharp widening in the August U.S. trade gap . <s>!_'
p379
sg17
I72
sg18
Nsg19
I58
sbsI73
g0
(g8
g2
Ntp380
Rp381
(dp382
g12
(lp383
I74
aI75
asg14
I01
sg15
S'Elaboration[N][S]'
p384
sg17
I73
sg18
Nsg19
I57
sbsI74
g0
(g8
g2
Ntp385
Rp386
(dp387
g12
(lp388
sg14
I01
sg15
S'_!They also point out <s>!_'
p389
sg17
I74
sg18
Nsg19
I73
sbsI75
g0
(g8
g2
Ntp390
Rp391
(dp392
g12
(lp393
I76
aI77
asg14
I01
sg15
S'Joint[N][N]'
p394
sg17
I75
sg18
Nsg19
I73
sbsI76
g0
(g8
g2
Ntp395
Rp396
(dp397
g12
(lp398
sg14
I01
sg15
S'_!that narrowing interest-rate differentials between the U.S.!_'
p399
sg17
I76
sg18
Nsg19
I75
sbsI77
g0
(g8
g2
Ntp400
Rp401
(dp402
g12
(lp403
sg14
I01
sg15
S'_!and its major trading partners tend to make the U.S. currency less attractive to foreign investors . <s>!_'
p404
sg17
I77
sg18
Nsg19
I75
sbsI78
g0
(g8
g2
Ntp405
Rp406
(dp407
g12
(lp408
I79
aI84
asg14
I01
sg15
S'Evaluation[N][S]'
p409
sg17
I78
sg18
Nsg19
I56
sbsI79
g0
(g8
g2
Ntp410
Rp411
(dp412
g12
(lp413
I80
aI83
asg14
I01
sg15
S'Evaluation[N][S]'
p414
sg17
I79
sg18
Nsg19
I78
sbsI80
g0
(g8
g2
Ntp415
Rp416
(dp417
g12
(lp418
I81
aI82
asg14
I01
sg15
S'Evaluation[N][S]'
p419
sg17
I80
sg18
Nsg19
I79
sbsI81
g0
(g8
g2
Ntp420
Rp421
(dp422
g12
(lp423
sg14
I01
sg15
S'_!Despite several spurts of dollar trading , <s>!_'
p424
sg17
I81
sg18
Nsg19
I80
sbsI82
g0
(g8
g2
Ntp425
Rp426
(dp427
g12
(lp428
sg14
I01
sg15
S"_!it was noted that mark-yen cross trade grabbed much of the market 's attention . <s>!_"
p429
sg17
I82
sg18
Nsg19
I80
sbsI83
g0
(g8
g2
Ntp430
Rp431
(dp432
g12
(lp433
sg14
I01
sg15
S'_!Following the dive in U.S. stocks , <s>!_'
p434
sg17
I83
sg18
Nsg19
I79
sbsI84
g0
(g8
g2
Ntp435
Rp436
(dp437
g12
(lp438
I85
aI86
asg14
I01
sg15
S'Elaboration[N][S]'
p439
sg17
I84
sg18
Nsg19
I78
sbsI85
g0
(g8
g2
Ntp440
Rp441
(dp442
g12
(lp443
sg14
I01
sg15
S'_!the mark has strengthened more than its major counterparts . <s>!_'
p444
sg17
I85
sg18
Nsg19
I84
sbsI86
g0
(g8
g2
Ntp445
Rp446
(dp447
g12
(lp448
I87
aI88
asg14
I01
sg15
S'Joint[N][N]'
p449
sg17
I86
sg18
Nsg19
I84
sbsI87
g0
(g8
g2
Ntp450
Rp451
(dp452
g12
(lp453
sg14
I01
sg15
S"_!Traders attribute the mark 's surge to a robust West German economy!_"
p454
sg17
I87
sg18
Nsg19
I86
sbsI88
g0
(g8
g2
Ntp455
Rp456
(dp457
g12
(lp458
sg14
I01
sg15
S'_!and higher rate differentials . <s>!_'
p459
sg17
I88
sg18
Nsg19
I86
sbsI89
g0
(g8
g2
Ntp460
Rp461
(dp462
g12
(lp463
I90
aI93
asg14
I01
sg15
S'Evaluation[N][S]'
p464
sg17
I89
sg18
Nsg19
I55
sbsI90
g0
(g8
g2
Ntp465
Rp466
(dp467
g12
(lp468
I91
aI92
asg14
I01
sg15
S'Explanation[N][S]'
p469
sg17
I90
sg18
Nsg19
I89
sbsI91
g0
(g8
g2
Ntp470
Rp471
(dp472
g12
(lp473
sg14
I01
sg15
S'same-unit[N][N]'
p474
sg17
I91
sg18
Nsg19
I90
sbsI92
g0
(g8
g2
Ntp475
Rp476
(dp477
g12
(lp478
sg14
I01
sg15
S"_!that the mark 's strength is in part a reflection of a shift away from U.S. assets by Japanese investors into West German investments . <s>!_"
p479
sg17
I92
sg18
Nsg19
I90
sbsI93
g0
(g8
g2
Ntp480
Rp481
(dp482
g12
(lp483
I94
aI95
asg14
I01
sg15
S'Elaboration[N][S]'
p484
sg17
I93
sg18
Nsg19
I89
sbsI94
g0
(g8
g2
Ntp485
Rp486
(dp487
g12
(lp488
sg14
I01
sg15
S'_!" The question remains : <s>!_'
p489
sg17
I94
sg18
Nsg19
I93
sbsI95
g0
(g8
g2
Ntp490
Rp491
(dp492
g12
(lp493
I96
aI97
asg14
I01
sg15
S'Explanation[N][S]'
p494
sg17
I95
sg18
Nsg19
I93
sbsI96
g0
(g8
g2
Ntp495
Rp496
(dp497
g12
(lp498
sg14
I01
sg15
S'_!how much can the West German market absorb ? " <s>!_'
p499
sg17
I96
sg18
Nsg19
I95
sbsI97
g0
(g8
g2
Ntp500
Rp501
(dp502
g12
(lp503
sg14
I01
sg15
S'_!says one senior dealer . <s>!_'
p504
sg17
I97
sg18
Nsg19
I95
sbsI98
g0
(g8
g2
Ntp505
Rp506
(dp507
g12
(lp508
I99
aI118
asg14
I01
sg15
S'Elaboration[N][S]'
p509
sg17
I98
sg18
Nsg19
I54
sbsI99
g0
(g8
g2
Ntp510
Rp511
(dp512
g12
(lp513
I100
aI109
asg14
I01
sg15
S'Elaboration[N][S]'
p514
sg17
I99
sg18
Nsg19
I98
sbsI100
g0
(g8
g2
Ntp515
Rp516
(dp517
g12
(lp518
I101
aI106
asg14
I01
sg15
S'Elaboration[N][S]'
p519
sg17
I100
sg18
Nsg19
I99
sbsI101
g0
(g8
g2
Ntp520
Rp521
(dp522
g12
(lp523
I102
aI105
asg14
I01
sg15
S'Elaboration[N][S]'
p524
sg17
I101
sg18
Nsg19
I100
sbsI102
g0
(g8
g2
Ntp525
Rp526
(dp527
g12
(lp528
I103
aI104
asg14
I01
sg15
S'Attribution[S][N]'
p529
sg17
I102
sg18
Nsg19
I101
sbsI103
g0
(g8
g2
Ntp530
Rp531
(dp532
g12
(lp533
sg14
I01
sg15
S'_!Some dealers say <s>!_'
p534
sg17
I103
sg18
Nsg19
I102
sbsI104
g0
(g8
g2
Ntp535
Rp536
(dp537
g12
(lp538
sg14
I01
sg15
S"_!that Bank of Japan Governor Satoshi Sumita 's reassurance <s>!_"
p539
sg17
I104
sg18
Nsg19
I102
sbsI105
g0
(g8
g2
Ntp540
Rp541
(dp542
g12
(lp543
sg14
I01
sg15
S"_!that Japanese monetary policy wo n't be changed for the time being <s>!_"
p544
sg17
I105
sg18
Nsg19
I101
sbsI106
g0
(g8
g2
Ntp545
Rp546
(dp547
g12
(lp548
I107
aI108
asg14
I01
sg15
S'Enablement[N][S]'
p549
sg17
I106
sg18
Nsg19
I100
sbsI107
g0
(g8
g2
Ntp550
Rp551
(dp552
g12
(lp553
sg14
I01
sg15
S'_!has given investors an added excuse <s>!_'
p554
sg17
I107
sg18
Nsg19
I106
sbsI108
g0
(g8
g2
Ntp555
Rp556
(dp557
g12
(lp558
sg14
I01
sg15
S'_!to push the yen down even further against the mark . <s>!_'
p559
sg17
I108
sg18
Nsg19
I106
sbsI109
g0
(g8
g2
Ntp560
Rp561
(dp562
g12
(lp563
I110
aI111
asg14
I01
sg15
S'Elaboration[N][S]'
p564
sg17
I109
sg18
Nsg19
I99
sbsI110
g0
(g8
g2
Ntp565
Rp566
(dp567
g12
(lp568
sg14
I01
sg15
S"_!Despite the yen 's weakness with respect to the mark , <s>!_"
p569
sg17
I110
sg18
Nsg19
I109
sbsI111
g0
(g8
g2
Ntp570
Rp571
(dp572
g12
(lp573
I112
aI113
asg14
I01
sg15
S'Attribution[S][N]'
p574
sg17
I111
sg18
Nsg19
I109
sbsI112
g0
(g8
g2
Ntp575
Rp576
(dp577
g12
(lp578
sg14
I01
sg15
S'_!Tokyo traders say <s>!_'
p579
sg17
I112
sg18
Nsg19
I111
sbsI113
g0
(g8
g2
Ntp580
Rp581
(dp582
g12
(lp583
I114
aI117
asg14
I01
sg15
S'Explanation[N][S]'
p584
sg17
I113
sg18
Nsg19
I111
sbsI114
g0
(g8
g2
Ntp585
Rp586
(dp587
g12
(lp588
I115
aI116
asg14
I01
sg15
S'Enablement[N][S]'
p589
sg17
I114
sg18
Nsg19
I113
sbsI115
g0
(g8
g2
Ntp590
Rp591
(dp592
g12
(lp593
sg14
I01
sg15
S"_!they do n't expect the Bank of Japan!_"
p594
sg17
I115
sg18
Nsg19
I114
sbsI116
g0
(g8
g2
Ntp595
Rp596
(dp597
g12
(lp598
sg14
I01
sg15
S'_!to take any action <s>!_'
p599
sg17
I116
sg18
Nsg19
I114
sbsI117
g0
(g8
g2
Ntp600
Rp601
(dp602
g12
(lp603
sg14
I01
sg15
S'_!to support the Japanese currency on that front . <s>!_'
p604
sg17
I117
sg18
Nsg19
I113
sbsI118
g0
(g8
g2
Ntp605
Rp606
(dp607
g12
(lp608
I119
aI124
asg14
I01
sg15
S'Contrast[S][N]'
p609
sg17
I118
sg18
Nsg19
I98
sbsI119
g0
(g8
g2
Ntp610
Rp611
(dp612
g12
(lp613
I120
aI123
asg14
I01
sg15
S'Elaboration[N][S]'
p614
sg17
I119
sg18
Nsg19
I118
sbsI120
g0
(g8
g2
Ntp615
Rp616
(dp617
g12
(lp618
I121
aI122
asg14
I01
sg15
S'Summary[N][S]'
p619
sg17
I120
sg18
Nsg19
I119
sbsI121
g0
(g8
g2
Ntp620
Rp621
(dp622
g12
(lp623
sg14
I01
sg15
S'_!Meanwhile , sterling slumped on news <s>!_'
p624
sg17
I121
sg18
Nsg19
I120
sbsI122
g0
(g8
g2
Ntp625
Rp626
(dp627
g12
(lp628
sg14
I01
sg15
S'_!that the United Kingdom posted a wider-than-expected trade deficit in September . <s>!_'
p629
sg17
I122
sg18
Nsg19
I120
sbsI123
g0
(g8
g2
Ntp630
Rp631
(dp632
g12
(lp633
sg14
I01
sg15
S'_!The news also knocked the British unit to below 2.95 marks in London , <s>!_'
p634
sg17
I123
sg18
Nsg19
I119
sbsI124
g0
(g8
g2
Ntp635
Rp636
(dp637
g12
(lp638
I125
aI126
asg14
I01
sg15
S'Elaboration[N][S]'
p639
sg17
I124
sg18
Nsg19
I118
sbsI125
g0
(g8
g2
Ntp640
Rp641
(dp642
g12
(lp643
sg14
I01
sg15
S'_!but a bout of short-covering helped sterling recoup some of its earlier losses . <s>!_'
p644
sg17
I125
sg18
Nsg19
I124
sbsI126
g0
(g8
g2
Ntp645
Rp646
(dp647
g12
(lp648
I127
aI134
asg14
I01
sg15
S'Elaboration[N][S]'
p649
sg17
I126
sg18
Nsg19
I124
sbsI127
g0
(g8
g2
Ntp650
Rp651
(dp652
g12
(lp653
I128
aI133
asg14
I01
sg15
S'Elaboration[N][S]'
p654
sg17
I127
sg18
Nsg19
I126
sbsI128
g0
(g8
g2
Ntp655
Rp656
(dp657
g12
(lp658
I129
aI132
asg14
I01
sg15
S'Elaboration[N][S]'
p659
sg17
I128
sg18
Nsg19
I127
sbsI129
g0
(g8
g2
Ntp660
Rp661
(dp662
g12
(lp663
I130
aI131
asg14
I01
sg15
S'Attribution[S][N]'
p664
sg17
I129
sg18
Nsg19
I128
sbsI130
g0
(g8
g2
Ntp665
Rp666
(dp667
g12
(lp668
sg14
I01
sg15
S'_!On the Commodity Exchange in New York , gold for current delivery jumped!_'
p669
sg17
I130
sg18
Nsg19
I129
sbsI131
g0
(g8
g2
Ntp670
Rp671
(dp672
g12
(lp673
sg14
I01
sg15
S'_!$ 3.20 to $ 370.20 an ounce . <s>!_'
p674
sg17
I131
sg18
Nsg19
I129
sbsI132
g0
(g8
g2
Ntp675
Rp676
(dp677
g12
(lp678
sg14
I01
sg15
S'_!The close was the highest since Aug. 15 . <s>!_'
p679
sg17
I132
sg18
Nsg19
I128
sbsI133
g0
(g8
g2
Ntp680
Rp681
(dp682
g12
(lp683
sg14
I01
sg15
S'_!Estimated volume was a light two million ounces . <s>!_'
p684
sg17
I133
sg18
Nsg19
I127
sbsI134
g0
(g8
g2
Ntp685
Rp686
(dp687
g12
(lp688
sg14
I01
sg15
S'_!In early trading in Hong Kong Wednesday , gold was quoted at $ 368.25 an ounce . <s>!_'
p689
sg17
I134
sg18
Nsg19
I126
sbssS'root'
p690
I0
sb.