ccopy_reg
_reconstructor
p0
(ctreelib.tree
Tree
p1
c__builtin__
object
p2
Ntp3
Rp4
(dp5
S'_nodes'
p6
(dp7
I0
g0
(ctreelib.node
Node
p8
g2
Ntp9
Rp10
(dp11
S'_fpointer'
p12
(lp13
I1
aI12
asS'expanded'
p14
I01
sS'_tag'
p15
S'Evaluation[N][S]'
p16
sS'_identifier'
p17
I0
sS'data'
p18
NsS'_bpointer'
p19
NsbsI1
g0
(g8
g2
Ntp20
Rp21
(dp22
g12
(lp23
I2
aI11
asg14
I01
sg15
S'Condition[N][S]'
p24
sg17
I1
sg18
Nsg19
I0
sbsI2
g0
(g8
g2
Ntp25
Rp26
(dp27
g12
(lp28
I3
aI10
asg14
I01
sg15
S'Contrast[S][N]'
p29
sg17
I2
sg18
Nsg19
I1
sbsI3
g0
(g8
g2
Ntp30
Rp31
(dp32
g12
(lp33
I4
aI5
asg14
I01
sg15
S'Explanation[N][S]'
p34
sg17
I3
sg18
Nsg19
I2
sbsI4
g0
(g8
g2
Ntp35
Rp36
(dp37
g12
(lp38
sg14
I01
sg15
S'_!Look . The name of the movie is Fight Club .!_'
p39
sg17
I4
sg18
Nsg19
I3
sbsI5
g0
(g8
g2
Ntp40
Rp41
(dp42
g12
(lp43
I6
aI9
asg14
I01
sg15
S'Enablement[N][S]'
p44
sg17
I5
sg18
Nsg19
I3
sbsI6
g0
(g8
g2
Ntp45
Rp46
(dp47
g12
(lp48
I7
aI8
asg14
I01
sg15
S'same-unit[N][N]'
p49
sg17
I6
sg18
Nsg19
I5
sbsI7
g0
(g8
g2
Ntp50
Rp51
(dp52
g12
(lp53
sg14
I01
sg15
S"_!It 's got bareknuckle fights!_"
p54
sg17
I7
sg18
Nsg19
I6
sbsI8
g0
(g8
g2
Ntp55
Rp56
(dp57
g12
(lp58
sg14
I01
sg15
S'_!in it .!_'
p59
sg17
I8
sg18
Nsg19
I6
sbsI9
g0
(g8
g2
Ntp60
Rp61
(dp62
g12
(lp63
sg14
I01
sg15
S"_!They 're violent .!_"
p64
sg17
I9
sg18
Nsg19
I5
sbsI10
g0
(g8
g2
Ntp65
Rp66
(dp67
g12
(lp68
sg14
I01
sg15
S"_!They 're bloody . Please do n't come out of Fight Club whining about!_"
p69
sg17
I10
sg18
Nsg19
I2
sbsI11
g0
(g8
g2
Ntp70
Rp71
(dp72
g12
(lp73
sg14
I01
sg15
S'_!how violent and bloody it is . Got it ? <s>!_'
p74
sg17
I11
sg18
Nsg19
I1
sbsI12
g0
(g8
g2
Ntp75
Rp76
(dp77
g12
(lp78
I13
aI14
asg14
I01
sg15
S'Contrast[S][N]'
p79
sg17
I12
sg18
Nsg19
I0
sbsI13
g0
(g8
g2
Ntp80
Rp81
(dp82
g12
(lp83
sg14
I01
sg15
S'_!Sex and violence are two of the things people go to movies for .!_'
p84
sg17
I13
sg18
Nsg19
I12
sbsI14
g0
(g8
g2
Ntp85
Rp86
(dp87
g12
(lp88
sg14
I01
sg15
S"_!They are n't getting enough in their own lives . <s>!_"
p89
sg17
I14
sg18
Nsg19
I12
sbssS'root'
p90
I0
sb.