ccopy_reg
_reconstructor
p0
(ctreelib.tree
Tree
p1
c__builtin__
object
p2
Ntp3
Rp4
(dp5
S'_nodes'
p6
(dp7
I0
g0
(ctreelib.node
Node
p8
g2
Ntp9
Rp10
(dp11
S'_fpointer'
p12
(lp13
I1
aI84
asS'expanded'
p14
I01
sS'_tag'
p15
S'Elaboration[N][S]'
p16
sS'_identifier'
p17
I0
sS'data'
p18
NsS'_bpointer'
p19
NsbsI1
g0
(g8
g2
Ntp20
Rp21
(dp22
g12
(lp23
I2
aI47
asg14
I01
sg15
S'Elaboration[N][S]'
p24
sg17
I1
sg18
Nsg19
I0
sbsI2
g0
(g8
g2
Ntp25
Rp26
(dp27
g12
(lp28
I3
aI18
asg14
I01
sg15
S'Elaboration[N][S]'
p29
sg17
I2
sg18
Nsg19
I1
sbsI3
g0
(g8
g2
Ntp30
Rp31
(dp32
g12
(lp33
I4
aI17
asg14
I01
sg15
S'Elaboration[N][S]'
p34
sg17
I3
sg18
Nsg19
I2
sbsI4
g0
(g8
g2
Ntp35
Rp36
(dp37
g12
(lp38
I5
aI8
asg14
I01
sg15
S'Elaboration[N][S]'
p39
sg17
I4
sg18
Nsg19
I3
sbsI5
g0
(g8
g2
Ntp40
Rp41
(dp42
g12
(lp43
I6
aI7
asg14
I01
sg15
S'Attribution[N][S]'
p44
sg17
I5
sg18
Nsg19
I4
sbsI6
g0
(g8
g2
Ntp45
Rp46
(dp47
g12
(lp48
sg14
I01
sg15
S'_!Energetic and concrete action has been taken in Colombia during the past 60 days against the mafiosi of the drug tradebut it has not been sufficiently effectivebecause ,!_'
p49
sg17
I6
sg18
Nsg19
I5
sbsI7
g0
(g8
g2
Ntp50
Rp51
(dp52
g12
(lp53
sg14
I01
sg15
S'_!unfortunately , it came too late . <s>!_'
p54
sg17
I7
sg18
Nsg19
I5
sbsI8
g0
(g8
g2
Ntp55
Rp56
(dp57
g12
(lp58
I9
aI12
asg14
I01
sg15
S'Elaboration[N][S]'
p59
sg17
I8
sg18
Nsg19
I4
sbsI9
g0
(g8
g2
Ntp60
Rp61
(dp62
g12
(lp63
I10
aI11
asg14
I01
sg15
S'Enablement[N][S]'
p64
sg17
I9
sg18
Nsg19
I8
sbsI10
g0
(g8
g2
Ntp65
Rp66
(dp67
g12
(lp68
sg14
I01
sg15
S'_!Ten years ago , the newspaper El Espectadorof which my brother Guillermo was editorbegan!_'
p69
sg17
I10
sg18
Nsg19
I9
sbsI11
g0
(g8
g2
Ntp70
Rp71
(dp72
g12
(lp73
sg14
I01
sg15
S"_!warning of the rise of the drug mafias and of their leaders ' aspirationto control Colombian politics , especially the Congress . <s>!_"
p74
sg17
I11
sg18
Nsg19
I9
sbsI12
g0
(g8
g2
Ntp75
Rp76
(dp77
g12
(lp78
I13
aI16
asg14
I01
sg15
S'Attribution[S][N]'
p79
sg17
I12
sg18
Nsg19
I8
sbsI13
g0
(g8
g2
Ntp80
Rp81
(dp82
g12
(lp83
I14
aI15
asg14
I01
sg15
S'Enablement[N][S]'
p84
sg17
I13
sg18
Nsg19
I12
sbsI14
g0
(g8
g2
Ntp85
Rp86
(dp87
g12
(lp88
sg14
I01
sg15
S'_!Thenwhen it would have been easier!_'
p89
sg17
I14
sg18
Nsg19
I13
sbsI15
g0
(g8
g2
Ntp90
Rp91
(dp92
g12
(lp93
sg14
I01
sg15
S'_!to resist themnothing was donand!_'
p94
sg17
I15
sg18
Nsg19
I13
sbsI16
g0
(g8
g2
Ntp95
Rp96
(dp97
g12
(lp98
sg14
I01
sg15
S'_!my brother was murdered by the drug mafias three years ago . <s>!_'
p99
sg17
I16
sg18
Nsg19
I12
sbsI17
g0
(g8
g2
Ntp100
Rp101
(dp102
g12
(lp103
sg14
I01
sg15
S"_!The most ruthless dictatorships have not censored their press more brutally than the drug mafias censor Colombia 's . <s>!_"
p104
sg17
I17
sg18
Nsg19
I3
sbsI18
g0
(g8
g2
Ntp105
Rp106
(dp107
g12
(lp108
I19
aI24
asg14
I01
sg15
S'Elaboration[N][S]'
p109
sg17
I18
sg18
Nsg19
I2
sbsI19
g0
(g8
g2
Ntp110
Rp111
(dp112
g12
(lp113
I20
aI21
asg14
I01
sg15
S'Explanation[N][S]'
p114
sg17
I19
sg18
Nsg19
I18
sbsI20
g0
(g8
g2
Ntp115
Rp116
(dp117
g12
(lp118
sg14
I01
sg15
S'_!The censorship is enforced through terrorism and assassination . <s>!_'
p119
sg17
I20
sg18
Nsg19
I19
sbsI21
g0
(g8
g2
Ntp120
Rp121
(dp122
g12
(lp123
I22
aI23
asg14
I01
sg15
S'Enablement[N][S]'
p124
sg17
I21
sg18
Nsg19
I19
sbsI22
g0
(g8
g2
Ntp125
Rp126
(dp127
g12
(lp128
sg14
I01
sg15
S'_!In the past 10 years about 50 journalists have been silenced forever ,!_'
p129
sg17
I22
sg18
Nsg19
I21
sbsI23
g0
(g8
g2
Ntp130
Rp131
(dp132
g12
(lp133
sg14
I01
sg15
S'_!murdered . <s>!_'
p134
sg17
I23
sg18
Nsg19
I21
sbsI24
g0
(g8
g2
Ntp135
Rp136
(dp137
g12
(lp138
I25
aI40
asg14
I01
sg15
S'Elaboration[N][S]'
p139
sg17
I24
sg18
Nsg19
I18
sbsI25
g0
(g8
g2
Ntp140
Rp141
(dp142
g12
(lp143
I26
aI39
asg14
I01
sg15
S'Elaboration[N][S]'
p144
sg17
I25
sg18
Nsg19
I24
sbsI26
g0
(g8
g2
Ntp145
Rp146
(dp147
g12
(lp148
I27
aI38
asg14
I01
sg15
S'Elaboration[N][S]'
p149
sg17
I26
sg18
Nsg19
I25
sbsI27
g0
(g8
g2
Ntp150
Rp151
(dp152
g12
(lp153
I28
aI35
asg14
I01
sg15
S'Elaboration[N][S]'
p154
sg17
I27
sg18
Nsg19
I26
sbsI28
g0
(g8
g2
Ntp155
Rp156
(dp157
g12
(lp158
I29
aI34
asg14
I01
sg15
S'Elaboration[N][S]'
p159
sg17
I28
sg18
Nsg19
I27
sbsI29
g0
(g8
g2
Ntp160
Rp161
(dp162
g12
(lp163
I30
aI31
asg14
I01
sg15
S'Elaboration[N][S]'
p164
sg17
I29
sg18
Nsg19
I28
sbsI30
g0
(g8
g2
Ntp165
Rp166
(dp167
g12
(lp168
sg14
I01
sg15
S'_!Within the past two months a bomb exploded in the offices of the El Espectador in Bogotadestroying a major part of its installations and equipment . <s>!_'
p169
sg17
I30
sg18
Nsg19
I29
sbsI31
g0
(g8
g2
Ntp170
Rp171
(dp172
g12
(lp173
I32
aI33
asg14
I01
sg15
S'Elaboration[N][S]'
p174
sg17
I31
sg18
Nsg19
I29
sbsI32
g0
(g8
g2
Ntp175
Rp176
(dp177
g12
(lp178
sg14
I01
sg15
S'_!And only last week the newspaper Vanguardia Liberal in the city of Bucaramanga was bombedand its installations!_'
p179
sg17
I32
sg18
Nsg19
I31
sbsI33
g0
(g8
g2
Ntp180
Rp181
(dp182
g12
(lp183
sg14
I01
sg15
S'_!destroyed . <s>!_'
p184
sg17
I33
sg18
Nsg19
I31
sbsI34
g0
(g8
g2
Ntp185
Rp186
(dp187
g12
(lp188
sg14
I01
sg15
S'_!Journalists and their families are constantly threateneas are the newspaper distribution outlets . <s>!_'
p189
sg17
I34
sg18
Nsg19
I28
sbsI35
g0
(g8
g2
Ntp190
Rp191
(dp192
g12
(lp193
I36
aI37
asg14
I01
sg15
S'Attribution[S][N]'
p194
sg17
I35
sg18
Nsg19
I27
sbsI36
g0
(g8
g2
Ntp195
Rp196
(dp197
g12
(lp198
sg14
I01
sg15
S'_!Distribution centers are bombedand!_'
p199
sg17
I36
sg18
Nsg19
I35
sbsI37
g0
(g8
g2
Ntp200
Rp201
(dp202
g12
(lp203
sg14
I01
sg15
S'_!advertisers are intimidated . <s>!_'
p204
sg17
I37
sg18
Nsg19
I35
sbsI38
g0
(g8
g2
Ntp205
Rp206
(dp207
g12
(lp208
sg14
I01
sg15
S'_!Censorship is imposed by terrorism . <s>!_'
p209
sg17
I38
sg18
Nsg19
I26
sbsI39
g0
(g8
g2
Ntp210
Rp211
(dp212
g12
(lp213
sg14
I01
sg15
S"_!If the Colombian media accept this new and hideous censorshithere is little doubthat the drug mafia 's terrorism someday will extend to all the newspaperpublished in the free world . <s>!_"
p214
sg17
I39
sg18
Nsg19
I25
sbsI40
g0
(g8
g2
Ntp215
Rp216
(dp217
g12
(lp218
I41
aI44
asg14
I01
sg15
S'Elaboration[N][S]'
p219
sg17
I40
sg18
Nsg19
I24
sbsI41
g0
(g8
g2
Ntp220
Rp221
(dp222
g12
(lp223
I42
aI43
asg14
I01
sg15
S'Elaboration[N][S]'
p224
sg17
I41
sg18
Nsg19
I40
sbsI42
g0
(g8
g2
Ntp225
Rp226
(dp227
g12
(lp228
sg14
I01
sg15
S'_!The solidarity of the uncensored media world-wide against drug terrorism is the only wapress freedom!_'
p229
sg17
I42
sg18
Nsg19
I41
sbsI43
g0
(g8
g2
Ntp230
Rp231
(dp232
g12
(lp233
sg14
I01
sg15
S'_!can survive . <s>!_'
p234
sg17
I43
sg18
Nsg19
I41
sbsI44
g0
(g8
g2
Ntp235
Rp236
(dp237
g12
(lp238
I45
aI46
asg14
I01
sg15
S'Elaboration[N][S]'
p239
sg17
I44
sg18
Nsg19
I40
sbsI45
g0
(g8
g2
Ntp240
Rp241
(dp242
g12
(lp243
sg14
I01
sg15
S'_!The American people and their government also woke up too late to the menacdrugs!_'
p244
sg17
I45
sg18
Nsg19
I44
sbsI46
g0
(g8
g2
Ntp245
Rp246
(dp247
g12
(lp248
sg14
I01
sg15
S'_!posed to the moral structure of their country . <s>!_'
p249
sg17
I46
sg18
Nsg19
I44
sbsI47
g0
(g8
g2
Ntp250
Rp251
(dp252
g12
(lp253
I48
aI51
asg14
I01
sg15
S'Explanation[N][S]'
p254
sg17
I47
sg18
Nsg19
I1
sbsI48
g0
(g8
g2
Ntp255
Rp256
(dp257
g12
(lp258
I49
aI50
asg14
I01
sg15
S'Enablement[N][S]'
p259
sg17
I48
sg18
Nsg19
I47
sbsI49
g0
(g8
g2
Ntp260
Rp261
(dp262
g12
(lp263
sg14
I01
sg15
S'_!Even now , the American attack upon this tremendous problem is timid in relation!_'
p264
sg17
I49
sg18
Nsg19
I48
sbsI50
g0
(g8
g2
Ntp265
Rp266
(dp267
g12
(lp268
sg14
I01
sg15
S'_!to the magnitude of the threat . <s>!_'
p269
sg17
I50
sg18
Nsg19
I48
sbsI51
g0
(g8
g2
Ntp270
Rp271
(dp272
g12
(lp273
I52
aI83
asg14
I01
sg15
S'Evaluation[N][S]'
p274
sg17
I51
sg18
Nsg19
I47
sbsI52
g0
(g8
g2
Ntp275
Rp276
(dp277
g12
(lp278
I53
aI82
asg14
I01
sg15
S'Contrast[S][N]'
p279
sg17
I52
sg18
Nsg19
I51
sbsI53
g0
(g8
g2
Ntp280
Rp281
(dp282
g12
(lp283
I54
aI79
asg14
I01
sg15
S'Elaboration[N][S]'
p284
sg17
I53
sg18
Nsg19
I52
sbsI54
g0
(g8
g2
Ntp285
Rp286
(dp287
g12
(lp288
I55
aI78
asg14
I01
sg15
S'Elaboration[N][S]'
p289
sg17
I54
sg18
Nsg19
I53
sbsI55
g0
(g8
g2
Ntp290
Rp291
(dp292
g12
(lp293
I56
aI71
asg14
I01
sg15
S'Elaboration[N][S]'
p294
sg17
I55
sg18
Nsg19
I54
sbsI56
g0
(g8
g2
Ntp295
Rp296
(dp297
g12
(lp298
I57
aI70
asg14
I01
sg15
S'Elaboration[N][S]'
p299
sg17
I56
sg18
Nsg19
I55
sbsI57
g0
(g8
g2
Ntp300
Rp301
(dp302
g12
(lp303
I58
aI69
asg14
I01
sg15
S'Elaboration[N][S]'
p304
sg17
I57
sg18
Nsg19
I56
sbsI58
g0
(g8
g2
Ntp305
Rp306
(dp307
g12
(lp308
I59
aI66
asg14
I01
sg15
S'Elaboration[N][S]'
p309
sg17
I58
sg18
Nsg19
I57
sbsI59
g0
(g8
g2
Ntp310
Rp311
(dp312
g12
(lp313
I60
aI65
asg14
I01
sg15
S'Elaboration[N][S]'
p314
sg17
I59
sg18
Nsg19
I58
sbsI60
g0
(g8
g2
Ntp315
Rp316
(dp317
g12
(lp318
I61
aI64
asg14
I01
sg15
S'Elaboration[N][S]'
p319
sg17
I60
sg18
Nsg19
I59
sbsI61
g0
(g8
g2
Ntp320
Rp321
(dp322
g12
(lp323
I62
aI63
asg14
I01
sg15
S'Joint[N][N]'
p324
sg17
I61
sg18
Nsg19
I60
sbsI62
g0
(g8
g2
Ntp325
Rp326
(dp327
g12
(lp328
sg14
I01
sg15
S"_!I can attesthat a recent Colombian visitor to the U.S. was offered drugs three times in the few blocks ' walk between Grand Central Terminal!_"
p329
sg17
I62
sg18
Nsg19
I61
sbsI63
g0
(g8
g2
Ntp330
Rp331
(dp332
g12
(lp333
sg14
I01
sg15
S'_!and the Waldorf Astoria Hotel in midtown Manhattan . <s>!_'
p334
sg17
I63
sg18
Nsg19
I61
sbsI64
g0
(g8
g2
Ntp335
Rp336
(dp337
g12
(lp338
sg14
I01
sg15
S'_!Colombia alon -- its government , its people , its newspapers-does not have the capacitto fight this battle successfully . <s>!_'
p339
sg17
I64
sg18
Nsg19
I60
sbsI65
g0
(g8
g2
Ntp340
Rp341
(dp342
g12
(lp343
sg14
I01
sg15
S'_!All drug-consuming countries must jointly decide to combat and punish the consumers and distributors of drugs . <s>!_'
p344
sg17
I65
sg18
Nsg19
I59
sbsI66
g0
(g8
g2
Ntp345
Rp346
(dp347
g12
(lp348
I67
aI68
asg14
I01
sg15
S'same-unit[N][N]'
p349
sg17
I66
sg18
Nsg19
I58
sbsI67
g0
(g8
g2
Ntp350
Rp351
(dp352
g12
(lp353
sg14
I01
sg15
S'_!The U.S. ,!_'
p354
sg17
I67
sg18
Nsg19
I66
sbsI68
g0
(g8
g2
Ntp355
Rp356
(dp357
g12
(lp358
sg14
I01
sg15
S'_!as the major drug consumer , should lead this joint effort . <s>!_'
p359
sg17
I68
sg18
Nsg19
I66
sbsI69
g0
(g8
g2
Ntp360
Rp361
(dp362
g12
(lp363
sg14
I01
sg15
S'_!Reduction , if not the total cessation , of drug consumption is the requirement for victory . <s>!_'
p364
sg17
I69
sg18
Nsg19
I57
sbsI70
g0
(g8
g2
Ntp365
Rp366
(dp367
g12
(lp368
sg14
I01
sg15
S'_!Much is being done in Colombito fight the drug cartel mafia . <s>!_'
p369
sg17
I70
sg18
Nsg19
I56
sbsI71
g0
(g8
g2
Ntp370
Rp371
(dp372
g12
(lp373
I72
aI75
asg14
I01
sg15
S'Elaboration[N][S]'
p374
sg17
I71
sg18
Nsg19
I55
sbsI72
g0
(g8
g2
Ntp375
Rp376
(dp377
g12
(lp378
I73
aI74
asg14
I01
sg15
S'Elaboration[N][S]'
p379
sg17
I72
sg18
Nsg19
I71
sbsI73
g0
(g8
g2
Ntp380
Rp381
(dp382
g12
(lp383
sg14
I01
sg15
S'_!Luxurious homes and ranches have been raided by the military authoritiesand!_'
p384
sg17
I73
sg18
Nsg19
I72
sbsI74
g0
(g8
g2
Ntp385
Rp386
(dp387
g12
(lp388
sg14
I01
sg15
S'_!sophisticated and powerful communications equipment have been seized . <s>!_'
p389
sg17
I74
sg18
Nsg19
I72
sbsI75
g0
(g8
g2
Ntp390
Rp391
(dp392
g12
(lp393
I76
aI77
asg14
I01
sg15
S'Elaboration[N][S]'
p394
sg17
I75
sg18
Nsg19
I71
sbsI76
g0
(g8
g2
Ntp395
Rp396
(dp397
g12
(lp398
sg14
I01
sg15
S'_!More than 300 planes and helicopters have been impounded at airportsand!_'
p399
sg17
I76
sg18
Nsg19
I75
sbsI77
g0
(g8
g2
Ntp400
Rp401
(dp402
g12
(lp403
sg14
I01
sg15
S'_!a large number of vehicles and launches has been confiscated . <s>!_'
p404
sg17
I77
sg18
Nsg19
I75
sbsI78
g0
(g8
g2
Ntp405
Rp406
(dp407
g12
(lp408
sg14
I01
sg15
S'_!The military has also captured enormous arsenals of powerful and sophisticated weapons , explosives and other war-like materiel . <s>!_'
p409
sg17
I78
sg18
Nsg19
I54
sbsI79
g0
(g8
g2
Ntp410
Rp411
(dp412
g12
(lp413
I80
aI81
asg14
I01
sg15
S'Enablement[N][S]'
p414
sg17
I79
sg18
Nsg19
I53
sbsI80
g0
(g8
g2
Ntp415
Rp416
(dp417
g12
(lp418
sg14
I01
sg15
S'_!Much has been accomplisheand!_'
p419
sg17
I80
sg18
Nsg19
I79
sbsI81
g0
(g8
g2
Ntp420
Rp421
(dp422
g12
(lp423
sg14
I01
sg15
S'_!public opinion decisively supports the government and the arm --!_'
p424
sg17
I81
sg18
Nsg19
I79
sbsI82
g0
(g8
g2
Ntp425
Rp426
(dp427
g12
(lp428
sg14
I01
sg15
S'_!but ,!_'
p429
sg17
I82
sg18
Nsg19
I52
sbsI83
g0
(g8
g2
Ntp430
Rp431
(dp432
g12
(lp433
sg14
I01
sg15
S'_!on the other hand , none of the key drug barons have been captured . <s>!_'
p434
sg17
I83
sg18
Nsg19
I51
sbsI84
g0
(g8
g2
Ntp435
Rp436
(dp437
g12
(lp438
I85
aI94
asg14
I01
sg15
S'Elaboration[N][S]'
p439
sg17
I84
sg18
Nsg19
I0
sbsI85
g0
(g8
g2
Ntp440
Rp441
(dp442
g12
(lp443
I86
aI91
asg14
I01
sg15
S'Elaboration[N][S]'
p444
sg17
I85
sg18
Nsg19
I84
sbsI86
g0
(g8
g2
Ntp445
Rp446
(dp447
g12
(lp448
I87
aI88
asg14
I01
sg15
S'Explanation[N][S]'
p449
sg17
I86
sg18
Nsg19
I85
sbsI87
g0
(g8
g2
Ntp450
Rp451
(dp452
g12
(lp453
sg14
I01
sg15
S'_!There has been a lot of talthat a large portion of the Colombian economy is sustained by the laundering of drug money . <s>!_'
p454
sg17
I87
sg18
Nsg19
I86
sbsI88
g0
(g8
g2
Ntp455
Rp456
(dp457
g12
(lp458
I89
aI90
asg14
I01
sg15
S'same-unit[N][N]'
p459
sg17
I88
sg18
Nsg19
I86
sbsI89
g0
(g8
g2
Ntp460
Rp461
(dp462
g12
(lp463
sg14
I01
sg15
S'_!In my opinion ,!_'
p464
sg17
I89
sg18
Nsg19
I88
sbsI90
g0
(g8
g2
Ntp465
Rp466
(dp467
g12
(lp468
sg14
I01
sg15
S'_!this is not true . <s>!_'
p469
sg17
I90
sg18
Nsg19
I88
sbsI91
g0
(g8
g2
Ntp470
Rp471
(dp472
g12
(lp473
I92
aI93
asg14
I01
sg15
S'Attribution[S][N]'
p474
sg17
I91
sg18
Nsg19
I85
sbsI92
g0
(g8
g2
Ntp475
Rp476
(dp477
g12
(lp478
sg14
I01
sg15
S'_!Laundered drug money has served only to increase , unrealistically ,!_'
p479
sg17
I92
sg18
Nsg19
I91
sbsI93
g0
(g8
g2
Ntp480
Rp481
(dp482
g12
(lp483
sg14
I01
sg15
S'_!the price of real estatecreating serious problems for low-income peoplwho aspire to own their own homes . <s>!_'
p484
sg17
I93
sg18
Nsg19
I91
sbsI94
g0
(g8
g2
Ntp485
Rp486
(dp487
g12
(lp488
I95
aI116
asg14
I01
sg15
S'Elaboration[N][S]'
p489
sg17
I94
sg18
Nsg19
I84
sbsI95
g0
(g8
g2
Ntp490
Rp491
(dp492
g12
(lp493
I96
aI103
asg14
I01
sg15
S'Elaboration[N][S]'
p494
sg17
I95
sg18
Nsg19
I94
sbsI96
g0
(g8
g2
Ntp495
Rp496
(dp497
g12
(lp498
I97
aI98
asg14
I01
sg15
S'Contrast[N][S]'
p499
sg17
I96
sg18
Nsg19
I95
sbsI97
g0
(g8
g2
Ntp500
Rp501
(dp502
g12
(lp503
sg14
I01
sg15
S'_!Drug money has also gonto buy expensive cars , airplanes , launches and nightclubwhere drugs are consumed . <s>!_'
p504
sg17
I97
sg18
Nsg19
I96
sbsI98
g0
(g8
g2
Ntp505
Rp506
(dp507
g12
(lp508
I99
aI102
asg14
I01
sg15
S'Elaboration[N][S]'
p509
sg17
I98
sg18
Nsg19
I96
sbsI99
g0
(g8
g2
Ntp510
Rp511
(dp512
g12
(lp513
I100
aI101
asg14
I01
sg15
S'Elaboration[N][S]'
p514
sg17
I99
sg18
Nsg19
I98
sbsI100
g0
(g8
g2
Ntp515
Rp516
(dp517
g12
(lp518
sg14
I01
sg15
S'_!But most of the drug money is kept in investments and in financial institutions outside Colombia . <s>!_'
p519
sg17
I100
sg18
Nsg19
I99
sbsI101
g0
(g8
g2
Ntp520
Rp521
(dp522
g12
(lp523
sg14
I01
sg15
S'_!In fact , the cooperation of those financial institutions is essential to the success of the drug battle . <s>!_'
p524
sg17
I101
sg18
Nsg19
I99
sbsI102
g0
(g8
g2
Ntp525
Rp526
(dp527
g12
(lp528
sg14
I01
sg15
S"_!What is of much more importance to the Colombian economy than the supposed benefits of laundered drug money is higher prices for Colombia 's legitimate products . <s>!_"
p529
sg17
I102
sg18
Nsg19
I98
sbsI103
g0
(g8
g2
Ntp530
Rp531
(dp532
g12
(lp533
I104
aI115
asg14
I01
sg15
S'Elaboration[N][S]'
p534
sg17
I103
sg18
Nsg19
I95
sbsI104
g0
(g8
g2
Ntp535
Rp536
(dp537
g12
(lp538
I105
aI114
asg14
I01
sg15
S'Elaboration[N][S]'
p539
sg17
I104
sg18
Nsg19
I103
sbsI105
g0
(g8
g2
Ntp540
Rp541
(dp542
g12
(lp543
I106
aI113
asg14
I01
sg15
S'Elaboration[N][S]'
p544
sg17
I105
sg18
Nsg19
I104
sbsI106
g0
(g8
g2
Ntp545
Rp546
(dp547
g12
(lp548
I107
aI112
asg14
I01
sg15
S'Elaboration[N][S]'
p549
sg17
I106
sg18
Nsg19
I105
sbsI107
g0
(g8
g2
Ntp550
Rp551
(dp552
g12
(lp553
I108
aI111
asg14
I01
sg15
S'Attribution[N][S]'
p554
sg17
I107
sg18
Nsg19
I106
sbsI108
g0
(g8
g2
Ntp555
Rp556
(dp557
g12
(lp558
I109
aI110
asg14
I01
sg15
S'Enablement[N][S]'
p559
sg17
I108
sg18
Nsg19
I107
sbsI109
g0
(g8
g2
Ntp560
Rp561
(dp562
g12
(lp563
sg14
I01
sg15
S'_!The price of coffee has gone down almost 45 % since the beginning of the year ,!_'
p564
sg17
I109
sg18
Nsg19
I108
sbsI110
g0
(g8
g2
Ntp565
Rp566
(dp567
g12
(lp568
sg14
I01
sg15
S'_!to the lowest leve!_'
p569
sg17
I110
sg18
Nsg19
I108
sbsI111
g0
(g8
g2
Ntp570
Rp571
(dp572
g12
(lp573
sg14
I01
sg15
S'_!( after inflationsince the Great Depression . <s>!_'
p574
sg17
I111
sg18
Nsg19
I107
sbsI112
g0
(g8
g2
Ntp575
Rp576
(dp577
g12
(lp578
sg14
I01
sg15
S'_!Market conditions point to even lower prices next year . <s>!_'
p579
sg17
I112
sg18
Nsg19
I106
sbsI113
g0
(g8
g2
Ntp580
Rp581
(dp582
g12
(lp583
sg14
I01
sg15
S'_!The 27-year-old coffee cartel had to be formally dissolved this summer . <s>!_'
p584
sg17
I113
sg18
Nsg19
I105
sbsI114
g0
(g8
g2
Ntp585
Rp586
(dp587
g12
(lp588
sg14
I01
sg15
S'_!As a result , Colombia will earn $ 500 million less from its coffee this year than last . <s>!_'
p589
sg17
I114
sg18
Nsg19
I104
sbsI115
g0
(g8
g2
Ntp590
Rp591
(dp592
g12
(lp593
sg14
I01
sg15
S'_!Our coffee growers face reductions in their incomeand this tempts them to contemplate substituting coca crops for coffee . <s>!_'
p594
sg17
I115
sg18
Nsg19
I103
sbsI116
g0
(g8
g2
Ntp595
Rp596
(dp597
g12
(lp598
I117
aI130
asg14
I01
sg15
S'Elaboration[N][S]'
p599
sg17
I116
sg18
Nsg19
I94
sbsI117
g0
(g8
g2
Ntp600
Rp601
(dp602
g12
(lp603
I118
aI127
asg14
I01
sg15
S'Elaboration[N][S]'
p604
sg17
I117
sg18
Nsg19
I116
sbsI118
g0
(g8
g2
Ntp605
Rp606
(dp607
g12
(lp608
I119
aI124
asg14
I01
sg15
S'Elaboration[N][S]'
p609
sg17
I118
sg18
Nsg19
I117
sbsI119
g0
(g8
g2
Ntp610
Rp611
(dp612
g12
(lp613
I120
aI123
asg14
I01
sg15
S'same-unit[N][N]'
p614
sg17
I119
sg18
Nsg19
I118
sbsI120
g0
(g8
g2
Ntp615
Rp616
(dp617
g12
(lp618
I121
aI122
asg14
I01
sg15
S'Elaboration[N][S]'
p619
sg17
I120
sg18
Nsg19
I119
sbsI121
g0
(g8
g2
Ntp620
Rp621
(dp622
g12
(lp623
sg14
I01
sg15
S'_!U.S. interests occasionally try to impose barriers to the import of another important Colombian expor!_'
p624
sg17
I121
sg18
Nsg19
I120
sbsI122
g0
(g8
g2
Ntp625
Rp626
(dp627
g12
(lp628
sg14
I01
sg15
S'_!-- cut flowers -!_'
p629
sg17
I122
sg18
Nsg19
I120
sbsI123
g0
(g8
g2
Ntp630
Rp631
(dp632
g12
(lp633
sg14
I01
sg15
S'_!into the American market . <s>!_'
p634
sg17
I123
sg18
Nsg19
I119
sbsI124
g0
(g8
g2
Ntp635
Rp636
(dp637
g12
(lp638
I125
aI126
asg14
I01
sg15
S'Elaboration[N][S]'
p639
sg17
I124
sg18
Nsg19
I118
sbsI125
g0
(g8
g2
Ntp640
Rp641
(dp642
g12
(lp643
sg14
I01
sg15
S'_!A just price and an open markefor!_'
p644
sg17
I125
sg18
Nsg19
I124
sbsI126
g0
(g8
g2
Ntp645
Rp646
(dp647
g12
(lp648
sg14
I01
sg15
S'_!what Colombian produces and exportshould be the policy of the U.S. <s>!_'
p649
sg17
I126
sg18
Nsg19
I124
sbsI127
g0
(g8
g2
Ntp650
Rp651
(dp652
g12
(lp653
I128
aI129
asg14
I01
sg15
S'Elaboration[N][S]'
p654
sg17
I127
sg18
Nsg19
I117
sbsI128
g0
(g8
g2
Ntp655
Rp656
(dp657
g12
(lp658
sg14
I01
sg15
S'_!I take advantage of this opportunitgiven to me by The Wall Street Journato make a plea to the millions of readers of this newspaperto!_'
p659
sg17
I128
sg18
Nsg19
I127
sbsI129
g0
(g8
g2
Ntp660
Rp661
(dp662
g12
(lp663
sg14
I01
sg15
S'_!become soldierdedicated to the fight against the use of drugs . <s>!_'
p664
sg17
I129
sg18
Nsg19
I127
sbsI130
g0
(g8
g2
Ntp665
Rp666
(dp667
g12
(lp668
I131
aI134
asg14
I01
sg15
S'Elaboration[N][S]'
p669
sg17
I130
sg18
Nsg19
I116
sbsI131
g0
(g8
g2
Ntp670
Rp671
(dp672
g12
(lp673
I132
aI133
asg14
I01
sg15
S'same-unit[N][N]'
p674
sg17
I131
sg18
Nsg19
I130
sbsI132
g0
(g8
g2
Ntp675
Rp676
(dp677
g12
(lp678
sg14
I01
sg15
S'_!Each gram of cocaine!_'
p679
sg17
I132
sg18
Nsg19
I131
sbsI133
g0
(g8
g2
Ntp680
Rp681
(dp682
g12
(lp683
sg14
I01
sg15
S'_!consumed is a deadly bullet against those in our country and in the rest of the worlwho fight this terrible scourge . <s>!_'
p684
sg17
I133
sg18
Nsg19
I131
sbsI134
g0
(g8
g2
Ntp685
Rp686
(dp687
g12
(lp688
sg14
I01
sg15
S'_!A crusade of NO to the consumption of drugs is imperative . <s>!_'
p689
sg17
I134
sg18
Nsg19
I130
sbssS'root'
p690
I0
sb.